
========================================================================

** ELF Header Information

    File Name: .\obj\M480_LCD_with_Touch.axf

    Machine class: ELFCLASS32 (32-bit)
    Data encoding: ELFDATA2LSB (Little endian)
    Header version: EV_CURRENT (Current version)
    Operating System ABI: none
    ABI Version: 0
    File Type: ET_EXEC (Executable) (2)
    Machine: EM_ARM (ARM)

    Image Entry point: 0x00000209
    Flags: EF_ARM_HASENTRY (0x05000002)

    ARM ELF revision: 5 (ABI version 2)

    Conforms to Base float procedure-call standard

    Built with
    Component: Arm Compiler for Embedded 6.22 Tool: armasm [5ee90e00]
    Component: Arm Compiler for Embedded 6.22 Tool: armlink [5ee90200]

    Header size: 52 bytes (0x34)
    Program header entry size: 32 bytes (0x20)
    Section header entry size: 40 bytes (0x28)

    Program header entries: 1
    Section header entries: 16

    Program header offset: 89732 (0x00015e84)
    Section header offset: 89764 (0x00015ea4)

    Section header string table index: 15

========================================================================

** Program header #0 (PT_LOAD) [PF_X + PF_W + PF_R + PF_ARM_ENTRY]
    Size : 18960 bytes (16812 bytes in file)
    Virtual address: 0x00000000 (Alignment 8)


========================================================================

** Section #1 'ER_RO' (SHT_PROGBITS) [SHF_ALLOC + SHF_EXECINSTR]
    Size   : 16768 bytes (alignment 4)
    Address: 0x00000000

    $d.realdata
    RESET
    __Vectors
        0x00000000:    20000890    ...     DCD    536873104
        0x00000004:    00000209    ....    DCD    521
        0x00000008:    00000249    I...    DCD    585
        0x0000000c:    0000024b    K...    DCD    587
        0x00000010:    0000025b    [...    DCD    603
        0x00000014:    0000025d    ]...    DCD    605
        0x00000018:    0000025f    _...    DCD    607
        0x0000001c:    00000000    ....    DCD    0
        0x00000020:    00000000    ....    DCD    0
        0x00000024:    00000000    ....    DCD    0
        0x00000028:    00000000    ....    DCD    0
        0x0000002c:    00000261    a...    DCD    609
        0x00000030:    00000263    c...    DCD    611
        0x00000034:    00000000    ....    DCD    0
        0x00000038:    00000265    e...    DCD    613
        0x0000003c:    00000267    g...    DCD    615
        0x00000040:    00000269    i...    DCD    617
        0x00000044:    00000269    i...    DCD    617
        0x00000048:    00000269    i...    DCD    617
        0x0000004c:    00000269    i...    DCD    617
        0x00000050:    00000269    i...    DCD    617
        0x00000054:    00000269    i...    DCD    617
        0x00000058:    00000269    i...    DCD    617
        0x0000005c:    00000269    i...    DCD    617
        0x00000060:    00000269    i...    DCD    617
        0x00000064:    00000269    i...    DCD    617
        0x00000068:    00000269    i...    DCD    617
        0x0000006c:    00000269    i...    DCD    617
        0x00000070:    00000269    i...    DCD    617
        0x00000074:    00000269    i...    DCD    617
        0x00000078:    00000269    i...    DCD    617
        0x0000007c:    00000269    i...    DCD    617
        0x00000080:    00000269    i...    DCD    617
        0x00000084:    00000269    i...    DCD    617
        0x00000088:    00000269    i...    DCD    617
        0x0000008c:    00000269    i...    DCD    617
        0x00000090:    00000269    i...    DCD    617
        0x00000094:    00000269    i...    DCD    617
        0x00000098:    00000269    i...    DCD    617
        0x0000009c:    00000269    i...    DCD    617
        0x000000a0:    00000269    i...    DCD    617
        0x000000a4:    00000269    i...    DCD    617
        0x000000a8:    00000269    i...    DCD    617
        0x000000ac:    00000269    i...    DCD    617
        0x000000b0:    00000269    i...    DCD    617
        0x000000b4:    00000269    i...    DCD    617
        0x000000b8:    00000269    i...    DCD    617
        0x000000bc:    00000269    i...    DCD    617
        0x000000c0:    00000269    i...    DCD    617
        0x000000c4:    000012e5    ....    DCD    4837
        0x000000c8:    00000269    i...    DCD    617
        0x000000cc:    000012f5    ....    DCD    4853
        0x000000d0:    00000269    i...    DCD    617
        0x000000d4:    00000269    i...    DCD    617
        0x000000d8:    00000269    i...    DCD    617
        0x000000dc:    00000269    i...    DCD    617
        0x000000e0:    00000269    i...    DCD    617
        0x000000e4:    00000269    i...    DCD    617
        0x000000e8:    00000269    i...    DCD    617
        0x000000ec:    000003d5    ....    DCD    981
        0x000000f0:    00000269    i...    DCD    617
        0x000000f4:    00000269    i...    DCD    617
        0x000000f8:    00000269    i...    DCD    617
        0x000000fc:    00000269    i...    DCD    617
        0x00000100:    00000269    i...    DCD    617
        0x00000104:    00000269    i...    DCD    617
        0x00000108:    00000269    i...    DCD    617
        0x0000010c:    00000269    i...    DCD    617
        0x00000110:    00000269    i...    DCD    617
        0x00000114:    00000269    i...    DCD    617
        0x00000118:    00000269    i...    DCD    617
        0x0000011c:    00000269    i...    DCD    617
        0x00000120:    00000269    i...    DCD    617
        0x00000124:    00000269    i...    DCD    617
        0x00000128:    00000269    i...    DCD    617
        0x0000012c:    00000269    i...    DCD    617
        0x00000130:    00000269    i...    DCD    617
        0x00000134:    00000269    i...    DCD    617
        0x00000138:    00000269    i...    DCD    617
        0x0000013c:    00000269    i...    DCD    617
        0x00000140:    00000269    i...    DCD    617
        0x00000144:    00000269    i...    DCD    617
        0x00000148:    00000269    i...    DCD    617
        0x0000014c:    00000269    i...    DCD    617
        0x00000150:    00000269    i...    DCD    617
        0x00000154:    00000269    i...    DCD    617
        0x00000158:    00000269    i...    DCD    617
        0x0000015c:    00000269    i...    DCD    617
        0x00000160:    00000269    i...    DCD    617
        0x00000164:    00000269    i...    DCD    617
        0x00000168:    00000269    i...    DCD    617
        0x0000016c:    00000269    i...    DCD    617
        0x00000170:    00000269    i...    DCD    617
        0x00000174:    00000269    i...    DCD    617
        0x00000178:    00000269    i...    DCD    617
        0x0000017c:    00000269    i...    DCD    617
        0x00000180:    00000269    i...    DCD    617
        0x00000184:    00000269    i...    DCD    617
        0x00000188:    00000269    i...    DCD    617
        0x0000018c:    00000269    i...    DCD    617
        0x00000190:    00000269    i...    DCD    617
        0x00000194:    00000269    i...    DCD    617
        0x00000198:    00000269    i...    DCD    617
        0x0000019c:    00000269    i...    DCD    617
        0x000001a0:    00000269    i...    DCD    617
        0x000001a4:    00000269    i...    DCD    617
        0x000001a8:    00000269    i...    DCD    617
        0x000001ac:    00000269    i...    DCD    617
        0x000001b0:    00000269    i...    DCD    617
        0x000001b4:    00000269    i...    DCD    617
        0x000001b8:    00000269    i...    DCD    617
        0x000001bc:    00000269    i...    DCD    617
        0x000001c0:    00000269    i...    DCD    617
        0x000001c4:    00000269    i...    DCD    617
        0x000001c8:    00000269    i...    DCD    617
        0x000001cc:    00000269    i...    DCD    617
        0x000001d0:    00000269    i...    DCD    617
        0x000001d4:    00000269    i...    DCD    617
        0x000001d8:    00000269    i...    DCD    617
        0x000001dc:    00000269    i...    DCD    617
        0x000001e0:    00000269    i...    DCD    617
        0x000001e4:    00000269    i...    DCD    617
        0x000001e8:    00000269    i...    DCD    617
        0x000001ec:    00000269    i...    DCD    617
        0x000001f0:    00000269    i...    DCD    617
    $t
    .ARM.Collect$$$$00000000
    .ARM.Collect$$$$00000001
    __Vectors_End
    __main
    _main_stk
        0x000001f4:    f8dfd00c    ....    LDR      sp,__lit__00000000 ; [0x204] = 0x20000890
    .ARM.Collect$$$$00000004
    _main_scatterload
        0x000001f8:    f000f886    ....    BL       __scatterload ; 0x308
    .ARM.Collect$$$$00000008
    .ARM.Collect$$$$0000000A
    .ARM.Collect$$$$0000000B
    __main_after_scatterload
    _main_clock
    _main_cpp_init
    _main_init
        0x000001fc:    4800        .H      LDR      r0,[pc,#0] ; [0x200] = 0x136d
        0x000001fe:    4700        .G      BX       r0
    $d
        0x00000200:    0000136d    m...    DCD    4973
    .ARM.Collect$$$$00002712
    __lit__00000000
    .ARM.Collect$$$$0000000D
    .ARM.Collect$$$$0000000F
    __rt_final_cpp
    __rt_final_exit
        0x00000204:    20000890    ...     DCD    536873104
    $t
    .text
    $v0
    Reset_Handler
        0x00000208:    4818        .H      LDR      r0,[pc,#96] ; [0x26c] = 0x40000100
        0x0000020a:    f04f0159    O.Y.    MOV      r1,#0x59
        0x0000020e:    6001        .`      STR      r1,[r0,#0]
        0x00000210:    f04f0116    O...    MOV      r1,#0x16
        0x00000214:    6001        .`      STR      r1,[r0,#0]
        0x00000216:    f04f0188    O...    MOV      r1,#0x88
        0x0000021a:    6001        .`      STR      r1,[r0,#0]
        0x0000021c:    4814        .H      LDR      r0,[pc,#80] ; [0x270] = 0x40000200
        0x0000021e:    6841        Ah      LDR      r1,[r0,#4]
        0x00000220:    f4414180    A..A    ORR      r1,r1,#0x4000
        0x00000224:    6041        A`      STR      r1,[r0,#4]
        0x00000226:    4813        .H      LDR      r0,[pc,#76] ; [0x274] = 0x40007000
        0x00000228:    6841        Ah      LDR      r1,[r0,#4]
        0x0000022a:    f0410102    A...    ORR      r1,r1,#2
        0x0000022e:    6041        A`      STR      r1,[r0,#4]
        0x00000230:    6841        Ah      LDR      r1,[r0,#4]
        0x00000232:    f0410104    A...    ORR      r1,r1,#4
        0x00000236:    6041        A`      STR      r1,[r0,#4]
        0x00000238:    480f        .H      LDR      r0,[pc,#60] ; [0x278] = 0x1275
        0x0000023a:    4780        .G      BLX      r0
        0x0000023c:    480b        .H      LDR      r0,[pc,#44] ; [0x26c] = 0x40000100
        0x0000023e:    f04f0100    O...    MOV      r1,#0
        0x00000242:    6001        .`      STR      r1,[r0,#0]
        0x00000244:    480d        .H      LDR      r0,[pc,#52] ; [0x27c] = 0x1f5
        0x00000246:    4700        .G      BX       r0
    NMI_Handler
        0x00000248:    e7fe        ..      B        NMI_Handler ; 0x248
    HardFault_Handler
        0x0000024a:    4670        pF      MOV      r0,lr
        0x0000024c:    f3ef8108    ....    MRS      r1,MSP
        0x00000250:    f3ef8209    ....    MRS      r2,PSP
        0x00000254:    4b0a        .K      LDR      r3,[pc,#40] ; [0x280] = 0x1071
        0x00000256:    4798        .G      BLX      r3
        0x00000258:    4700        .G      BX       r0
    MemManage_Handler
        0x0000025a:    e7fe        ..      B        MemManage_Handler ; 0x25a
    BusFault_Handler
        0x0000025c:    e7fe        ..      B        BusFault_Handler ; 0x25c
    UsageFault_Handler
        0x0000025e:    e7fe        ..      B        UsageFault_Handler ; 0x25e
    SVC_Handler
        0x00000260:    e7fe        ..      B        SVC_Handler ; 0x260
    DebugMon_Handler
        0x00000262:    e7fe        ..      B        DebugMon_Handler ; 0x262
    PendSV_Handler
        0x00000264:    e7fe        ..      B        PendSV_Handler ; 0x264
    SysTick_Handler
        0x00000266:    e7fe        ..      B        SysTick_Handler ; 0x266
    Default_Handler
    ACMP01_IRQHandler
    BOD_IRQHandler
    BPWM0_IRQHandler
    BPWM1_IRQHandler
    BRAKE0_IRQHandler
    BRAKE1_IRQHandler
    CAN0_IRQHandler
    CAN1_IRQHandler
    CAN2_IRQHandler
    CCAP_IRQHandler
    CKFAIL_IRQHandler
    CRYPTO_IRQHandler
    DAC_IRQHandler
    EADC00_IRQHandler
    EADC02_IRQHandler
    EADC03_IRQHandler
    EADC10_IRQHandler
    EADC11_IRQHandler
    EADC12_IRQHandler
    EADC13_IRQHandler
    ECAP0_IRQHandler
    ECAP1_IRQHandler
    EHCI_IRQHandler
    EINT0_IRQHandler
    EINT1_IRQHandler
    EINT2_IRQHandler
    EINT3_IRQHandler
    EINT4_IRQHandler
    EINT5_IRQHandler
    EINT6_IRQHandler
    EINT7_IRQHandler
    EMAC_RX_IRQHandler
    EMAC_TX_IRQHandler
    EPWM0P0_IRQHandler
    EPWM0P1_IRQHandler
    EPWM0P2_IRQHandler
    EPWM1P0_IRQHandler
    EPWM1P1_IRQHandler
    EPWM1P2_IRQHandler
    GPA_IRQHandler
    GPB_IRQHandler
    GPC_IRQHandler
    GPD_IRQHandler
    GPE_IRQHandler
    GPF_IRQHandler
    GPG_IRQHandler
    GPH_IRQHandler
    I2C0_IRQHandler
    I2C1_IRQHandler
    I2C2_IRQHandler
    I2S0_IRQHandler
    IRC_IRQHandler
    OHCI_IRQHandler
    OPA0_IRQHandler
    PDMA_IRQHandler
    PWRWU_IRQHandler
    QEI0_IRQHandler
    QEI1_IRQHandler
    QSPI0_IRQHandler
    QSPI1_IRQHandler
    RAMPE_IRQHandler
    RTC_IRQHandler
    SC0_IRQHandler
    SC1_IRQHandler
    SC2_IRQHandler
    SDH0_IRQHandler
    SDH1_IRQHandler
    SPI0_IRQHandler
    SPI1_IRQHandler
    SPI2_IRQHandler
    SPI3_IRQHandler
    SPIM_IRQHandler
    TAMPER_IRQHandler
    TMR0_IRQHandler
    TMR2_IRQHandler
    TRNG_IRQHandler
    UART0_IRQHandler
    UART1_IRQHandler
    UART2_IRQHandler
    UART3_IRQHandler
    UART4_IRQHandler
    UART5_IRQHandler
    UART6_IRQHandler
    UART7_IRQHandler
    USBD20_IRQHandler
    USBD_IRQHandler
    USBOTG20_IRQHandler
    USBOTG_IRQHandler
    USCI0_IRQHandler
    USCI1_IRQHandler
    WDT_IRQHandler
    WWDT_IRQHandler
        0x00000268:    e7fe        ..      B        Default_Handler ; 0x268
    $d
        0x0000026a:    0000        ..      DCW    0
        0x0000026c:    40000100    ...@    DCD    1073742080
        0x00000270:    40000200    ...@    DCD    1073742336
        0x00000274:    40007000    .p.@    DCD    1073770496
        0x00000278:    00001275    u...    DCD    4725
        0x0000027c:    000001f5    ....    DCD    501
        0x00000280:    00001071    q...    DCD    4209
    $t
    .text
    __aeabi_uldivmod
        0x00000284:    e92d5ff0    -.._    PUSH     {r4-r12,lr}
        0x00000288:    4605        .F      MOV      r5,r0
        0x0000028a:    2000        .       MOVS     r0,#0
        0x0000028c:    4692        .F      MOV      r10,r2
        0x0000028e:    469b        .F      MOV      r11,r3
        0x00000290:    4688        .F      MOV      r8,r1
        0x00000292:    4606        .F      MOV      r6,r0
        0x00000294:    4681        .F      MOV      r9,r0
        0x00000296:    2440        @$      MOVS     r4,#0x40
        0x00000298:    e01b        ..      B        0x2d2 ; __aeabi_uldivmod + 78
        0x0000029a:    4628        (F      MOV      r0,r5
        0x0000029c:    4641        AF      MOV      r1,r8
        0x0000029e:    4647        GF      MOV      r7,r8
        0x000002a0:    4622        "F      MOV      r2,r4
        0x000002a2:    f000f820    .. .    BL       __aeabi_llsr ; 0x2e6
        0x000002a6:    4653        SF      MOV      r3,r10
        0x000002a8:    465a        ZF      MOV      r2,r11
        0x000002aa:    1ac0        ..      SUBS     r0,r0,r3
        0x000002ac:    4191        .A      SBCS     r1,r1,r2
        0x000002ae:    d310        ..      BCC      0x2d2 ; __aeabi_uldivmod + 78
        0x000002b0:    4611        .F      MOV      r1,r2
        0x000002b2:    4618        .F      MOV      r0,r3
        0x000002b4:    4622        "F      MOV      r2,r4
        0x000002b6:    f000f83f    ..?.    BL       __aeabi_llsl ; 0x338
        0x000002ba:    1a2d        -.      SUBS     r5,r5,r0
        0x000002bc:    eb670801    g...    SBC      r8,r7,r1
        0x000002c0:    464f        OF      MOV      r7,r9
        0x000002c2:    4622        "F      MOV      r2,r4
        0x000002c4:    2001        .       MOVS     r0,#1
        0x000002c6:    2100        .!      MOVS     r1,#0
        0x000002c8:    f000f836    ..6.    BL       __aeabi_llsl ; 0x338
        0x000002cc:    eb170900    ....    ADDS     r9,r7,r0
        0x000002d0:    414e        NA      ADCS     r6,r6,r1
        0x000002d2:    1e20         .      SUBS     r0,r4,#0
        0x000002d4:    f1a40401    ....    SUB      r4,r4,#1
        0x000002d8:    dcdf        ..      BGT      0x29a ; __aeabi_uldivmod + 22
        0x000002da:    4648        HF      MOV      r0,r9
        0x000002dc:    4631        1F      MOV      r1,r6
        0x000002de:    462a        *F      MOV      r2,r5
        0x000002e0:    4643        CF      MOV      r3,r8
        0x000002e2:    e8bd9ff0    ....    POP      {r4-r12,pc}
    .text
    __aeabi_llsr
    _ll_ushift_r
        0x000002e6:    2a20         *      CMP      r2,#0x20
        0x000002e8:    db04        ..      BLT      0x2f4 ; __aeabi_llsr + 14
        0x000002ea:    3a20         :      SUBS     r2,r2,#0x20
        0x000002ec:    fa21f002    !...    LSR      r0,r1,r2
        0x000002f0:    2100        .!      MOVS     r1,#0
        0x000002f2:    4770        pG      BX       lr
        0x000002f4:    fa21f302    !...    LSR      r3,r1,r2
        0x000002f8:    40d0        .@      LSRS     r0,r0,r2
        0x000002fa:    f1c20220    .. .    RSB      r2,r2,#0x20
        0x000002fe:    4091        .@      LSLS     r1,r1,r2
        0x00000300:    4308        .C      ORRS     r0,r0,r1
        0x00000302:    4619        .F      MOV      r1,r3
        0x00000304:    4770        pG      BX       lr
        0x00000306:    0000        ..      MOVS     r0,r0
    .text
    __scatterload
    __scatterload_rt2
        0x00000308:    b51c        ..      PUSH     {r2-r4,lr}
        0x0000030a:    4809        .H      LDR      r0,[pc,#36] ; [0x330] = 0x4160
        0x0000030c:    9000        ..      STR      r0,[sp,#0]
        0x0000030e:    4809        .H      LDR      r0,[pc,#36] ; [0x334] = 0x4180
        0x00000310:    9001        ..      STR      r0,[sp,#4]
        0x00000312:    4605        .F      MOV      r5,r0
        0x00000314:    9c00        ..      LDR      r4,[sp,#0]
        0x00000316:    e006        ..      B        0x326 ; __scatterload + 30
        0x00000318:    68e0        .h      LDR      r0,[r4,#0xc]
        0x0000031a:    f0400301    @...    ORR      r3,r0,#1
        0x0000031e:    e8940007    ....    LDM      r4,{r0-r2}
        0x00000322:    4798        .G      BLX      r3
        0x00000324:    3410        .4      ADDS     r4,r4,#0x10
        0x00000326:    42ac        .B      CMP      r4,r5
        0x00000328:    d3f6        ..      BCC      0x318 ; __scatterload + 16
        0x0000032a:    f7ffff67    ..g.    BL       __main_after_scatterload ; 0x1fc
    $d
        0x0000032e:    0000        ..      DCW    0
        0x00000330:    00004160    `A..    DCD    16736
        0x00000334:    00004180    .A..    DCD    16768
    $t
    .text
    __aeabi_llsl
    _ll_shift_l
        0x00000338:    2a20         *      CMP      r2,#0x20
        0x0000033a:    db04        ..      BLT      0x346 ; __aeabi_llsl + 14
        0x0000033c:    3a20         :      SUBS     r2,r2,#0x20
        0x0000033e:    fa00f102    ....    LSL      r1,r0,r2
        0x00000342:    2000        .       MOVS     r0,#0
        0x00000344:    4770        pG      BX       lr
        0x00000346:    4091        .@      LSLS     r1,r1,r2
        0x00000348:    f1c20320    .. .    RSB      r3,r2,#0x20
        0x0000034c:    fa20f303     ...    LSR      r3,r0,r3
        0x00000350:    4319        .C      ORRS     r1,r1,r3
        0x00000352:    4090        .@      LSLS     r0,r0,r2
        0x00000354:    4770        pG      BX       lr
        0x00000356:    0000        ..      MOVS     r0,r0
    $t.3
    CLK_EnableModuleClock
        0x00000358:    f2402304    @..#    MOVW     r3,#0x204
        0x0000035c:    f000011f    ....    AND      r1,r0,#0x1f
        0x00000360:    0f80        ..      LSRS     r0,r0,#30
        0x00000362:    f2c40300    ....    MOVT     r3,#0x4000
        0x00000366:    f04f0c01    O...    MOV      r12,#1
        0x0000036a:    f8532020    S.      LDR      r2,[r3,r0,LSL #2]
        0x0000036e:    fa0cf101    ....    LSL      r1,r12,r1
        0x00000372:    4311        .C      ORRS     r1,r1,r2
        0x00000374:    f8431020    C. .    STR      r1,[r3,r0,LSL #2]
        0x00000378:    4770        pG      BX       lr
        0x0000037a:    0000        ..      MOVS     r0,r0
    CLK_GetPLLClockFreq
        0x0000037c:    f2402040    @.@     MOVW     r0,#0x240
        0x00000380:    f2c40000    ....    MOVT     r0,#0x4000
        0x00000384:    6800        .h      LDR      r0,[r0,#0]
        0x00000386:    f4102fa0    .../    TST      r0,#0x50000
        0x0000038a:    bf1c        ..      ITT      NE
        0x0000038c:    2000        .       MOVNE    r0,#0
        0x0000038e:    4770        pG      BXNE     lr
        0x00000390:    0381        ..      LSLS     r1,r0,#14
        0x00000392:    bf42        B.      ITTT     MI
        0x00000394:    f6413000    A..0    MOVWMI   r0,#0x1b00
        0x00000398:    f2c000b7    ....    MOVTMI   r0,#0xb7
        0x0000039c:    4770        pG      BXMI     lr
        0x0000039e:    f6413258    A.X2    MOV      r2,#0x1b58
        0x000003a2:    f3c03181    ...1    UBFX     r1,r0,#14,#2
        0x000003a6:    f2c00200    ....    MOVT     r2,#0
        0x000003aa:    5c51        Q\      LDRB     r1,[r2,r1]
        0x000003ac:    f3c02244    ..D"    UBFX     r2,r0,#9,#5
        0x000003b0:    f36f205f    o._     BFC      r0,#9,#23
        0x000003b4:    f24b731b    K..s    MOV      r3,#0xb71b
        0x000003b8:    4358        XC      MULS     r0,r3,r0
        0x000003ba:    f6485380    H..S    MOV      r3,#0x8d80
        0x000003be:    3201        .2      ADDS     r2,#1
        0x000003c0:    f2c0035b    ..[.    MOVT     r3,#0x5b
        0x000003c4:    eb031080    ....    ADD      r0,r3,r0,LSL #6
        0x000003c8:    4351        QC      MULS     r1,r2,r1
        0x000003ca:    fbb0f0f1    ....    UDIV     r0,r0,r1
        0x000003ce:    00c0        ..      LSLS     r0,r0,#3
        0x000003d0:    4770        pG      BX       lr
        0x000003d2:    0000        ..      MOVS     r0,r0
    EADC01_IRQHandler
        0x000003d4:    f24300f8    C...    MOV      r0,#0x30f8
        0x000003d8:    f2c40004    ....    MOVT     r0,#0x4004
        0x000003dc:    2102        .!      MOVS     r1,#2
        0x000003de:    6001        .`      STR      r1,[r0,#0]
        0x000003e0:    f2400088    @...    MOVW     r0,#0x88
        0x000003e4:    f2c20000    ....    MOVT     r0,#0x2000
        0x000003e8:    2101        .!      MOVS     r1,#1
        0x000003ea:    6001        .`      STR      r1,[r0,#0]
        0x000003ec:    4770        pG      BX       lr
        0x000003ee:    0000        ..      MOVS     r0,r0
    EBI_LCD_Init
        0x000003f0:    b570        p.      PUSH     {r4-r6,lr}
        0x000003f2:    2003        .       MOVS     r0,#3
        0x000003f4:    f7ffffb0    ....    BL       CLK_EnableModuleClock ; 0x358
        0x000003f8:    204c        L       MOVS     r0,#0x4c
        0x000003fa:    f2c40000    ....    MOVT     r0,#0x4000
        0x000003fe:    6981        .i      LDR      r1,[r0,#0x18]
        0x00000400:    f2422220    B. "    MOV      r2,#0x2220
        0x00000404:    f36f111b    o...    BFC      r1,#4,#24
        0x00000408:    6181        .a      STR      r1,[r0,#0x18]
        0x0000040a:    6981        .i      LDR      r1,[r0,#0x18]
        0x0000040c:    f2c02222    ..""    MOVT     r2,#0x222
        0x00000410:    4311        .C      ORRS     r1,r1,r2
        0x00000412:    6181        .a      STR      r1,[r0,#0x18]
        0x00000414:    6801        .h      LDR      r1,[r0,#0]
        0x00000416:    f64f72ff    O..r    MOV      r2,#0xffff
        0x0000041a:    f02101ff    !...    BIC      r1,r1,#0xff
        0x0000041e:    6001        .`      STR      r1,[r0,#0]
        0x00000420:    6801        .h      LDR      r1,[r0,#0]
        0x00000422:    f2440440    D.@.    MOV      r4,#0x4040
        0x00000426:    f0410122    A.".    ORR      r1,r1,#0x22
        0x0000042a:    6001        .`      STR      r1,[r0,#0]
        0x0000042c:    6881        .h      LDR      r1,[r0,#8]
        0x0000042e:    f2c40400    ....    MOVT     r4,#0x4000
        0x00000432:    f021417f    !..A    BIC      r1,r1,#0xff000000
        0x00000436:    6081        .`      STR      r1,[r0,#8]
        0x00000438:    6881        .h      LDR      r1,[r0,#8]
        0x0000043a:    2501        .%      MOVS     r5,#1
        0x0000043c:    f0415108    A..Q    ORR      r1,r1,#0x22000000
        0x00000440:    6081        .`      STR      r1,[r0,#8]
        0x00000442:    6841        Ah      LDR      r1,[r0,#4]
        0x00000444:    f02101ff    !...    BIC      r1,r1,#0xff
        0x00000448:    6041        A`      STR      r1,[r0,#4]
        0x0000044a:    6841        Ah      LDR      r1,[r0,#4]
        0x0000044c:    f0410122    A.".    ORR      r1,r1,#0x22
        0x00000450:    6041        A`      STR      r1,[r0,#4]
        0x00000452:    6a01        .j      LDR      r1,[r0,#0x20]
        0x00000454:    4391        .C      BICS     r1,r1,r2
        0x00000456:    6201        .b      STR      r1,[r0,#0x20]
        0x00000458:    6a01        .j      LDR      r1,[r0,#0x20]
        0x0000045a:    f2422222    B.""    MOV      r2,#0x2222
        0x0000045e:    4311        .C      ORRS     r1,r1,r2
        0x00000460:    6201        .b      STR      r1,[r0,#0x20]
        0x00000462:    6841        Ah      LDR      r1,[r0,#4]
        0x00000464:    2201        ."      MOVS     r2,#1
        0x00000466:    f421017f    !...    BIC      r1,r1,#0xff0000
        0x0000046a:    6041        A`      STR      r1,[r0,#4]
        0x0000046c:    6841        Ah      LDR      r1,[r0,#4]
        0x0000046e:    f4411108    A...    ORR      r1,r1,#0x220000
        0x00000472:    6041        A`      STR      r1,[r0,#4]
        0x00000474:    6801        .h      LDR      r1,[r0,#0]
        0x00000476:    f0216170    !.pa    BIC      r1,r1,#0xf000000
        0x0000047a:    6001        .`      STR      r1,[r0,#0]
        0x0000047c:    6801        .h      LDR      r1,[r0,#0]
        0x0000047e:    f0417100    A..q    ORR      r1,r1,#0x2000000
        0x00000482:    6001        .`      STR      r1,[r0,#0]
        0x00000484:    f50470c0    ...p    ADD      r0,r4,#0x180
        0x00000488:    2108        .!      MOVS     r1,#8
        0x0000048a:    f000f819    ....    BL       GPIO_SetMode ; 0x4c0
        0x0000048e:    f6440658    D.X.    MOV      r6,#0x4858
        0x00000492:    f2c40600    ....    MOVT     r6,#0x4000
        0x00000496:    4620         F      MOV      r0,r4
        0x00000498:    21c0        .!      MOVS     r1,#0xc0
        0x0000049a:    2201        ."      MOVS     r2,#1
        0x0000049c:    f8c65174    ..tQ    STR      r5,[r6,#0x174]
        0x000004a0:    f000f80e    ....    BL       GPIO_SetMode ; 0x4c0
        0x000004a4:    2004        .       MOVS     r0,#4
        0x000004a6:    f2c40001    ....    MOVT     r0,#0x4001
        0x000004aa:    f2401103    @...    MOV      r1,#0x103
        0x000004ae:    6035        5`      STR      r5,[r6,#0]
        0x000004b0:    6075        u`      STR      r5,[r6,#4]
        0x000004b2:    f8401c04    @...    STR      r1,[r0,#-4]
        0x000004b6:    6801        .h      LDR      r1,[r0,#0]
        0x000004b8:    f4410140    A.@.    ORR      r1,r1,#0xc00000
        0x000004bc:    6001        .`      STR      r1,[r0,#0]
        0x000004be:    bd70        p.      POP      {r4-r6,pc}
    GPIO_SetMode
        0x000004c0:    b570        p.      PUSH     {r4-r6,lr}
        0x000004c2:    2300        .#      MOVS     r3,#0
        0x000004c4:    f04f0e0e    O...    MOV      lr,#0xe
        0x000004c8:    f04f0c03    O...    MOV      r12,#3
        0x000004cc:    e006        ..      B        0x4dc ; GPIO_SetMode + 28
        0x000004ce:    bf00        ..      NOP      
        0x000004d0:    3301        .3      ADDS     r3,#1
        0x000004d2:    2b10        .+      CMP      r3,#0x10
        0x000004d4:    f10e0e10    ....    ADD      lr,lr,#0x10
        0x000004d8:    bf08        ..      IT       EQ
        0x000004da:    bd70        p.      POPEQ    {r4-r6,pc}
        0x000004dc:    fa21f403    !...    LSR      r4,r1,r3
        0x000004e0:    07e4        ..      LSLS     r4,r4,#31
        0x000004e2:    d009        ..      BEQ      0x4f8 ; GPIO_SetMode + 56
        0x000004e4:    6804        .h      LDR      r4,[r0,#0]
        0x000004e6:    f1ae050e    ....    SUB      r5,lr,#0xe
        0x000004ea:    fa0cf605    ....    LSL      r6,r12,r5
        0x000004ee:    43b4        .C      BICS     r4,r4,r6
        0x000004f0:    fa02f505    ....    LSL      r5,r2,r5
        0x000004f4:    432c        ,C      ORRS     r4,r4,r5
        0x000004f6:    6004        .`      STR      r4,[r0,#0]
        0x000004f8:    3301        .3      ADDS     r3,#1
        0x000004fa:    fa21f403    !...    LSR      r4,r1,r3
        0x000004fe:    07e4        ..      LSLS     r4,r4,#31
        0x00000500:    d009        ..      BEQ      0x516 ; GPIO_SetMode + 86
        0x00000502:    6804        .h      LDR      r4,[r0,#0]
        0x00000504:    f1ae050c    ....    SUB      r5,lr,#0xc
        0x00000508:    fa0cf605    ....    LSL      r6,r12,r5
        0x0000050c:    43b4        .C      BICS     r4,r4,r6
        0x0000050e:    fa02f505    ....    LSL      r5,r2,r5
        0x00000512:    432c        ,C      ORRS     r4,r4,r5
        0x00000514:    6004        .`      STR      r4,[r0,#0]
        0x00000516:    3301        .3      ADDS     r3,#1
        0x00000518:    fa21f403    !...    LSR      r4,r1,r3
        0x0000051c:    07e4        ..      LSLS     r4,r4,#31
        0x0000051e:    d009        ..      BEQ      0x534 ; GPIO_SetMode + 116
        0x00000520:    6804        .h      LDR      r4,[r0,#0]
        0x00000522:    f1ae050a    ....    SUB      r5,lr,#0xa
        0x00000526:    fa0cf605    ....    LSL      r6,r12,r5
        0x0000052a:    43b4        .C      BICS     r4,r4,r6
        0x0000052c:    fa02f505    ....    LSL      r5,r2,r5
        0x00000530:    432c        ,C      ORRS     r4,r4,r5
        0x00000532:    6004        .`      STR      r4,[r0,#0]
        0x00000534:    3301        .3      ADDS     r3,#1
        0x00000536:    fa21f403    !...    LSR      r4,r1,r3
        0x0000053a:    07e4        ..      LSLS     r4,r4,#31
        0x0000053c:    d009        ..      BEQ      0x552 ; GPIO_SetMode + 146
        0x0000053e:    6804        .h      LDR      r4,[r0,#0]
        0x00000540:    f1ae0508    ....    SUB      r5,lr,#8
        0x00000544:    fa0cf605    ....    LSL      r6,r12,r5
        0x00000548:    43b4        .C      BICS     r4,r4,r6
        0x0000054a:    fa02f505    ....    LSL      r5,r2,r5
        0x0000054e:    432c        ,C      ORRS     r4,r4,r5
        0x00000550:    6004        .`      STR      r4,[r0,#0]
        0x00000552:    3301        .3      ADDS     r3,#1
        0x00000554:    fa21f403    !...    LSR      r4,r1,r3
        0x00000558:    07e4        ..      LSLS     r4,r4,#31
        0x0000055a:    d009        ..      BEQ      0x570 ; GPIO_SetMode + 176
        0x0000055c:    6804        .h      LDR      r4,[r0,#0]
        0x0000055e:    f1ae0506    ....    SUB      r5,lr,#6
        0x00000562:    fa0cf605    ....    LSL      r6,r12,r5
        0x00000566:    43b4        .C      BICS     r4,r4,r6
        0x00000568:    fa02f505    ....    LSL      r5,r2,r5
        0x0000056c:    432c        ,C      ORRS     r4,r4,r5
        0x0000056e:    6004        .`      STR      r4,[r0,#0]
        0x00000570:    3301        .3      ADDS     r3,#1
        0x00000572:    fa21f403    !...    LSR      r4,r1,r3
        0x00000576:    07e4        ..      LSLS     r4,r4,#31
        0x00000578:    d009        ..      BEQ      0x58e ; GPIO_SetMode + 206
        0x0000057a:    6804        .h      LDR      r4,[r0,#0]
        0x0000057c:    f1ae0504    ....    SUB      r5,lr,#4
        0x00000580:    fa0cf605    ....    LSL      r6,r12,r5
        0x00000584:    43b4        .C      BICS     r4,r4,r6
        0x00000586:    fa02f505    ....    LSL      r5,r2,r5
        0x0000058a:    432c        ,C      ORRS     r4,r4,r5
        0x0000058c:    6004        .`      STR      r4,[r0,#0]
        0x0000058e:    3301        .3      ADDS     r3,#1
        0x00000590:    fa21f403    !...    LSR      r4,r1,r3
        0x00000594:    07e4        ..      LSLS     r4,r4,#31
        0x00000596:    d009        ..      BEQ      0x5ac ; GPIO_SetMode + 236
        0x00000598:    6804        .h      LDR      r4,[r0,#0]
        0x0000059a:    f1ae0502    ....    SUB      r5,lr,#2
        0x0000059e:    fa0cf605    ....    LSL      r6,r12,r5
        0x000005a2:    43b4        .C      BICS     r4,r4,r6
        0x000005a4:    fa02f505    ....    LSL      r5,r2,r5
        0x000005a8:    432c        ,C      ORRS     r4,r4,r5
        0x000005aa:    6004        .`      STR      r4,[r0,#0]
        0x000005ac:    3301        .3      ADDS     r3,#1
        0x000005ae:    fa21f403    !...    LSR      r4,r1,r3
        0x000005b2:    07e4        ..      LSLS     r4,r4,#31
        0x000005b4:    d08c        ..      BEQ      0x4d0 ; GPIO_SetMode + 16
        0x000005b6:    6804        .h      LDR      r4,[r0,#0]
        0x000005b8:    fa0cf50e    ....    LSL      r5,r12,lr
        0x000005bc:    43ac        .C      BICS     r4,r4,r5
        0x000005be:    fa02f50e    ....    LSL      r5,r2,lr
        0x000005c2:    432c        ,C      ORRS     r4,r4,r5
        0x000005c4:    6004        .`      STR      r4,[r0,#0]
        0x000005c6:    e783        ..      B        0x4d0 ; GPIO_SetMode + 16
    ILI9341_Initial
        0x000005c8:    e92d4ff0    -..O    PUSH     {r4-r11,lr}
        0x000005cc:    f64411cc    D...    MOV      r1,#0x49cc
        0x000005d0:    f64f628c    O..b    MOV      r2,#0xfe8c
        0x000005d4:    f2c40100    ....    MOVT     r1,#0x4000
        0x000005d8:    f6cf72ff    ...r    MOVT     r2,#0xffff
        0x000005dc:    2301        .#      MOVS     r3,#1
        0x000005de:    f2400500    @...    MOVW     r5,#0
        0x000005e2:    508b        .P      STR      r3,[r1,r2]
        0x000005e4:    f2c20500    ....    MOVT     r5,#0x2000
        0x000005e8:    682b        +h      LDR      r3,[r5,#0]
        0x000005ea:    f24e0010    N...    MOV      r0,#0xe010
        0x000005ee:    f2413788    A..7    MOV      r7,#0x1388
        0x000005f2:    f2ce0000    ....    MOVT     r0,#0xe000
        0x000005f6:    437b        {C      MULS     r3,r7,r3
        0x000005f8:    6043        C`      STR      r3,[r0,#4]
        0x000005fa:    2300        .#      MOVS     r3,#0
        0x000005fc:    6083        .`      STR      r3,[r0,#8]
        0x000005fe:    2305        .#      MOVS     r3,#5
        0x00000600:    6003        .`      STR      r3,[r0,#0]
        0x00000602:    6803        .h      LDR      r3,[r0,#0]
        0x00000604:    03db        ..      LSLS     r3,r3,#15
        0x00000606:    d409        ..      BMI      0x61c ; ILI9341_Initial + 84
        0x00000608:    6803        .h      LDR      r3,[r0,#0]
        0x0000060a:    03db        ..      LSLS     r3,r3,#15
        0x0000060c:    bf5c        \.      ITT      PL
        0x0000060e:    6803        .h      LDRPL    r3,[r0,#0]
        0x00000610:    ea5f33c3    _..3    LSLSPL   r3,r3,#15
        0x00000614:    d402        ..      BMI      0x61c ; ILI9341_Initial + 84
        0x00000616:    6803        .h      LDR      r3,[r0,#0]
        0x00000618:    03db        ..      LSLS     r3,r3,#15
        0x0000061a:    d5f2        ..      BPL      0x602 ; ILI9341_Initial + 58
        0x0000061c:    2300        .#      MOVS     r3,#0
        0x0000061e:    6003        .`      STR      r3,[r0,#0]
        0x00000620:    508b        .P      STR      r3,[r1,r2]
        0x00000622:    682f        /h      LDR      r7,[r5,#0]
        0x00000624:    f6446620    D. f    MOV      r6,#0x4e20
        0x00000628:    4377        wC      MULS     r7,r6,r7
        0x0000062a:    6047        G`      STR      r7,[r0,#4]
        0x0000062c:    6083        .`      STR      r3,[r0,#8]
        0x0000062e:    2305        .#      MOVS     r3,#5
        0x00000630:    6003        .`      STR      r3,[r0,#0]
        0x00000632:    6803        .h      LDR      r3,[r0,#0]
        0x00000634:    03db        ..      LSLS     r3,r3,#15
        0x00000636:    d409        ..      BMI      0x64c ; ILI9341_Initial + 132
        0x00000638:    6803        .h      LDR      r3,[r0,#0]
        0x0000063a:    03db        ..      LSLS     r3,r3,#15
        0x0000063c:    bf5c        \.      ITT      PL
        0x0000063e:    6803        .h      LDRPL    r3,[r0,#0]
        0x00000640:    ea5f33c3    _..3    LSLSPL   r3,r3,#15
        0x00000644:    d402        ..      BMI      0x64c ; ILI9341_Initial + 132
        0x00000646:    6803        .h      LDR      r3,[r0,#0]
        0x00000648:    03db        ..      LSLS     r3,r3,#15
        0x0000064a:    d5f2        ..      BPL      0x632 ; ILI9341_Initial + 106
        0x0000064c:    2300        .#      MOVS     r3,#0
        0x0000064e:    2701        .'      MOVS     r7,#1
        0x00000650:    6003        .`      STR      r3,[r0,#0]
        0x00000652:    508f        .P      STR      r7,[r1,r2]
        0x00000654:    682a        *h      LDR      r2,[r5,#0]
        0x00000656:    f6494740    I.@G    MOV      r7,#0x9c40
        0x0000065a:    437a        zC      MULS     r2,r7,r2
        0x0000065c:    6042        B`      STR      r2,[r0,#4]
        0x0000065e:    2205        ."      MOVS     r2,#5
        0x00000660:    6083        .`      STR      r3,[r0,#8]
        0x00000662:    6002        .`      STR      r2,[r0,#0]
        0x00000664:    6802        .h      LDR      r2,[r0,#0]
        0x00000666:    03d2        ..      LSLS     r2,r2,#15
        0x00000668:    d409        ..      BMI      0x67e ; ILI9341_Initial + 182
        0x0000066a:    6802        .h      LDR      r2,[r0,#0]
        0x0000066c:    03d2        ..      LSLS     r2,r2,#15
        0x0000066e:    bf5c        \.      ITT      PL
        0x00000670:    6802        .h      LDRPL    r2,[r0,#0]
        0x00000672:    ea5f32c2    _..2    LSLSPL   r2,r2,#15
        0x00000676:    d402        ..      BMI      0x67e ; ILI9341_Initial + 182
        0x00000678:    6802        .h      LDR      r2,[r0,#0]
        0x0000067a:    03d2        ..      LSLS     r2,r2,#15
        0x0000067c:    d5f2        ..      BPL      0x664 ; ILI9341_Initial + 156
        0x0000067e:    2300        .#      MOVS     r3,#0
        0x00000680:    f04f4ec0    O..N    MOV      lr,#0x60000000
        0x00000684:    22cb        ."      MOVS     r2,#0xcb
        0x00000686:    2400        .$      MOVS     r4,#0
        0x00000688:    6003        .`      STR      r3,[r0,#0]
        0x0000068a:    600b        .`      STR      r3,[r1,#0]
        0x0000068c:    f8ae2000    ...     STRH     r2,[lr,#0]
        0x00000690:    2201        ."      MOVS     r2,#1
        0x00000692:    f2c60403    ....    MOVT     r4,#0x6003
        0x00000696:    2739        9'      MOVS     r7,#0x39
        0x00000698:    600a        .`      STR      r2,[r1,#0]
        0x0000069a:    8027        '.      STRH     r7,[r4,#0]
        0x0000069c:    272c        ,'      MOVS     r7,#0x2c
        0x0000069e:    8027        '.      STRH     r7,[r4,#0]
        0x000006a0:    2734        4'      MOVS     r7,#0x34
        0x000006a2:    8023        #.      STRH     r3,[r4,#0]
        0x000006a4:    8027        '.      STRH     r7,[r4,#0]
        0x000006a6:    2702        .'      MOVS     r7,#2
        0x000006a8:    8027        '.      STRH     r7,[r4,#0]
        0x000006aa:    27cf        .'      MOVS     r7,#0xcf
        0x000006ac:    600b        .`      STR      r3,[r1,#0]
        0x000006ae:    f8ae7000    ...p    STRH     r7,[lr,#0]
        0x000006b2:    27c1        .'      MOVS     r7,#0xc1
        0x000006b4:    600a        .`      STR      r2,[r1,#0]
        0x000006b6:    8023        #.      STRH     r3,[r4,#0]
        0x000006b8:    8027        '.      STRH     r7,[r4,#0]
        0x000006ba:    2730        0'      MOVS     r7,#0x30
        0x000006bc:    8027        '.      STRH     r7,[r4,#0]
        0x000006be:    27e8        .'      MOVS     r7,#0xe8
        0x000006c0:    600b        .`      STR      r3,[r1,#0]
        0x000006c2:    f8ae7000    ...p    STRH     r7,[lr,#0]
        0x000006c6:    2785        .'      MOVS     r7,#0x85
        0x000006c8:    600a        .`      STR      r2,[r1,#0]
        0x000006ca:    8027        '.      STRH     r7,[r4,#0]
        0x000006cc:    2778        x'      MOVS     r7,#0x78
        0x000006ce:    8023        #.      STRH     r3,[r4,#0]
        0x000006d0:    8027        '.      STRH     r7,[r4,#0]
        0x000006d2:    27ea        .'      MOVS     r7,#0xea
        0x000006d4:    600b        .`      STR      r3,[r1,#0]
        0x000006d6:    f8ae7000    ...p    STRH     r7,[lr,#0]
        0x000006da:    27ed        .'      MOVS     r7,#0xed
        0x000006dc:    600a        .`      STR      r2,[r1,#0]
        0x000006de:    8023        #.      STRH     r3,[r4,#0]
        0x000006e0:    8023        #.      STRH     r3,[r4,#0]
        0x000006e2:    600b        .`      STR      r3,[r1,#0]
        0x000006e4:    f8ae7000    ...p    STRH     r7,[lr,#0]
        0x000006e8:    2764        d'      MOVS     r7,#0x64
        0x000006ea:    600a        .`      STR      r2,[r1,#0]
        0x000006ec:    8027        '.      STRH     r7,[r4,#0]
        0x000006ee:    2703        .'      MOVS     r7,#3
        0x000006f0:    8027        '.      STRH     r7,[r4,#0]
        0x000006f2:    2712        .'      MOVS     r7,#0x12
        0x000006f4:    8027        '.      STRH     r7,[r4,#0]
        0x000006f6:    2781        .'      MOVS     r7,#0x81
        0x000006f8:    8027        '.      STRH     r7,[r4,#0]
        0x000006fa:    27f7        .'      MOVS     r7,#0xf7
        0x000006fc:    600b        .`      STR      r3,[r1,#0]
        0x000006fe:    f8ae7000    ...p    STRH     r7,[lr,#0]
        0x00000702:    2720         '      MOVS     r7,#0x20
        0x00000704:    600a        .`      STR      r2,[r1,#0]
        0x00000706:    8027        '.      STRH     r7,[r4,#0]
        0x00000708:    27c0        .'      MOVS     r7,#0xc0
        0x0000070a:    600b        .`      STR      r3,[r1,#0]
        0x0000070c:    f8ae7000    ...p    STRH     r7,[lr,#0]
        0x00000710:    2723        #'      MOVS     r7,#0x23
        0x00000712:    26c1        .&      MOVS     r6,#0xc1
        0x00000714:    600a        .`      STR      r2,[r1,#0]
        0x00000716:    8027        '.      STRH     r7,[r4,#0]
        0x00000718:    2710        .'      MOVS     r7,#0x10
        0x0000071a:    600b        .`      STR      r3,[r1,#0]
        0x0000071c:    f8ae6000    ...`    STRH     r6,[lr,#0]
        0x00000720:    600a        .`      STR      r2,[r1,#0]
        0x00000722:    8027        '.      STRH     r7,[r4,#0]
        0x00000724:    27c5        .'      MOVS     r7,#0xc5
        0x00000726:    600b        .`      STR      r3,[r1,#0]
        0x00000728:    f8ae7000    ...p    STRH     r7,[lr,#0]
        0x0000072c:    273e        >'      MOVS     r7,#0x3e
        0x0000072e:    600a        .`      STR      r2,[r1,#0]
        0x00000730:    8027        '.      STRH     r7,[r4,#0]
        0x00000732:    2728        ('      MOVS     r7,#0x28
        0x00000734:    8027        '.      STRH     r7,[r4,#0]
        0x00000736:    27c7        .'      MOVS     r7,#0xc7
        0x00000738:    600b        .`      STR      r3,[r1,#0]
        0x0000073a:    f8ae7000    ...p    STRH     r7,[lr,#0]
        0x0000073e:    2786        .'      MOVS     r7,#0x86
        0x00000740:    600a        .`      STR      r2,[r1,#0]
        0x00000742:    8027        '.      STRH     r7,[r4,#0]
        0x00000744:    2736        6'      MOVS     r7,#0x36
        0x00000746:    600b        .`      STR      r3,[r1,#0]
        0x00000748:    f8ae7000    ...p    STRH     r7,[lr,#0]
        0x0000074c:    2748        H'      MOVS     r7,#0x48
        0x0000074e:    600a        .`      STR      r2,[r1,#0]
        0x00000750:    8027        '.      STRH     r7,[r4,#0]
        0x00000752:    273a        :'      MOVS     r7,#0x3a
        0x00000754:    600b        .`      STR      r3,[r1,#0]
        0x00000756:    f8ae7000    ...p    STRH     r7,[lr,#0]
        0x0000075a:    2755        U'      MOVS     r7,#0x55
        0x0000075c:    600a        .`      STR      r2,[r1,#0]
        0x0000075e:    8027        '.      STRH     r7,[r4,#0]
        0x00000760:    27b1        .'      MOVS     r7,#0xb1
        0x00000762:    600b        .`      STR      r3,[r1,#0]
        0x00000764:    f8ae7000    ...p    STRH     r7,[lr,#0]
        0x00000768:    2718        .'      MOVS     r7,#0x18
        0x0000076a:    600a        .`      STR      r2,[r1,#0]
        0x0000076c:    8023        #.      STRH     r3,[r4,#0]
        0x0000076e:    8027        '.      STRH     r7,[r4,#0]
        0x00000770:    27b6        .'      MOVS     r7,#0xb6
        0x00000772:    f04f0b08    O...    MOV      r11,#8
        0x00000776:    2682        .&      MOVS     r6,#0x82
        0x00000778:    600b        .`      STR      r3,[r1,#0]
        0x0000077a:    f8ae7000    ...p    STRH     r7,[lr,#0]
        0x0000077e:    600a        .`      STR      r2,[r1,#0]
        0x00000780:    f8a4b000    ....    STRH     r11,[r4,#0]
        0x00000784:    8026        &.      STRH     r6,[r4,#0]
        0x00000786:    2627        '&      MOVS     r6,#0x27
        0x00000788:    8026        &.      STRH     r6,[r4,#0]
        0x0000078a:    26f2        .&      MOVS     r6,#0xf2
        0x0000078c:    600b        .`      STR      r3,[r1,#0]
        0x0000078e:    f8ae6000    ...`    STRH     r6,[lr,#0]
        0x00000792:    2626        &&      MOVS     r6,#0x26
        0x00000794:    600a        .`      STR      r2,[r1,#0]
        0x00000796:    8023        #.      STRH     r3,[r4,#0]
        0x00000798:    600b        .`      STR      r3,[r1,#0]
        0x0000079a:    f8ae6000    ...`    STRH     r6,[lr,#0]
        0x0000079e:    26e0        .&      MOVS     r6,#0xe0
        0x000007a0:    600a        .`      STR      r2,[r1,#0]
        0x000007a2:    8022        ".      STRH     r2,[r4,#0]
        0x000007a4:    600b        .`      STR      r3,[r1,#0]
        0x000007a6:    f8ae6000    ...`    STRH     r6,[lr,#0]
        0x000007aa:    f04f080f    O...    MOV      r8,#0xf
        0x000007ae:    2531        1%      MOVS     r5,#0x31
        0x000007b0:    262b        +&      MOVS     r6,#0x2b
        0x000007b2:    600a        .`      STR      r2,[r1,#0]
        0x000007b4:    f8a48000    ....    STRH     r8,[r4,#0]
        0x000007b8:    8025        %.      STRH     r5,[r4,#0]
        0x000007ba:    8026        &.      STRH     r6,[r4,#0]
        0x000007bc:    f04f090c    O...    MOV      r9,#0xc
        0x000007c0:    f04f0c0e    O...    MOV      r12,#0xe
        0x000007c4:    f04f0a4e    O.N.    MOV      r10,#0x4e
        0x000007c8:    26f1        .&      MOVS     r6,#0xf1
        0x000007ca:    f8a49000    ....    STRH     r9,[r4,#0]
        0x000007ce:    f8a4c000    ....    STRH     r12,[r4,#0]
        0x000007d2:    f8a4b000    ....    STRH     r11,[r4,#0]
        0x000007d6:    f8a4a000    ....    STRH     r10,[r4,#0]
        0x000007da:    8026        &.      STRH     r6,[r4,#0]
        0x000007dc:    2637        7&      MOVS     r6,#0x37
        0x000007de:    8026        &.      STRH     r6,[r4,#0]
        0x000007e0:    f04f0a07    O...    MOV      r10,#7
        0x000007e4:    2610        .&      MOVS     r6,#0x10
        0x000007e6:    f8a4a000    ....    STRH     r10,[r4,#0]
        0x000007ea:    8026        &.      STRH     r6,[r4,#0]
        0x000007ec:    2603        .&      MOVS     r6,#3
        0x000007ee:    2709        .'      MOVS     r7,#9
        0x000007f0:    8026        &.      STRH     r6,[r4,#0]
        0x000007f2:    f8a4c000    ....    STRH     r12,[r4,#0]
        0x000007f6:    8027        '.      STRH     r7,[r4,#0]
        0x000007f8:    27e1        .'      MOVS     r7,#0xe1
        0x000007fa:    8023        #.      STRH     r3,[r4,#0]
        0x000007fc:    600b        .`      STR      r3,[r1,#0]
        0x000007fe:    f8ae7000    ...p    STRH     r7,[lr,#0]
        0x00000802:    2714        .'      MOVS     r7,#0x14
        0x00000804:    600a        .`      STR      r2,[r1,#0]
        0x00000806:    8023        #.      STRH     r3,[r4,#0]
        0x00000808:    f8a4c000    ....    STRH     r12,[r4,#0]
        0x0000080c:    8027        '.      STRH     r7,[r4,#0]
        0x0000080e:    8026        &.      STRH     r6,[r4,#0]
        0x00000810:    2711        .'      MOVS     r7,#0x11
        0x00000812:    26c1        .&      MOVS     r6,#0xc1
        0x00000814:    8027        '.      STRH     r7,[r4,#0]
        0x00000816:    f8a4a000    ....    STRH     r10,[r4,#0]
        0x0000081a:    8025        %.      STRH     r5,[r4,#0]
        0x0000081c:    8026        &.      STRH     r6,[r4,#0]
        0x0000081e:    2648        H&      MOVS     r6,#0x48
        0x00000820:    8026        &.      STRH     r6,[r4,#0]
        0x00000822:    2636        6&      MOVS     r6,#0x36
        0x00000824:    f8a4b000    ....    STRH     r11,[r4,#0]
        0x00000828:    f8a48000    ....    STRH     r8,[r4,#0]
        0x0000082c:    f8a49000    ....    STRH     r9,[r4,#0]
        0x00000830:    8025        %.      STRH     r5,[r4,#0]
        0x00000832:    8026        &.      STRH     r6,[r4,#0]
        0x00000834:    f8a48000    ....    STRH     r8,[r4,#0]
        0x00000838:    600b        .`      STR      r3,[r1,#0]
        0x0000083a:    f8ae7000    ...p    STRH     r7,[lr,#0]
        0x0000083e:    600a        .`      STR      r2,[r1,#0]
        0x00000840:    f2400200    @...    MOVW     r2,#0
        0x00000844:    f2c20200    ....    MOVT     r2,#0x2000
        0x00000848:    6812        .h      LDR      r2,[r2,#0]
        0x0000084a:    f6405740    @.@W    MOVW     r7,#0xd40
        0x0000084e:    f2c00703    ....    MOVT     r7,#3
        0x00000852:    437a        zC      MULS     r2,r7,r2
        0x00000854:    6042        B`      STR      r2,[r0,#4]
        0x00000856:    2205        ."      MOVS     r2,#5
        0x00000858:    6083        .`      STR      r3,[r0,#8]
        0x0000085a:    6002        .`      STR      r2,[r0,#0]
        0x0000085c:    6802        .h      LDR      r2,[r0,#0]
        0x0000085e:    03d2        ..      LSLS     r2,r2,#15
        0x00000860:    d409        ..      BMI      0x876 ; ILI9341_Initial + 686
        0x00000862:    6802        .h      LDR      r2,[r0,#0]
        0x00000864:    03d2        ..      LSLS     r2,r2,#15
        0x00000866:    bf5c        \.      ITT      PL
        0x00000868:    6802        .h      LDRPL    r2,[r0,#0]
        0x0000086a:    ea5f32c2    _..2    LSLSPL   r2,r2,#15
        0x0000086e:    d402        ..      BMI      0x876 ; ILI9341_Initial + 686
        0x00000870:    6802        .h      LDR      r2,[r0,#0]
        0x00000872:    03d2        ..      LSLS     r2,r2,#15
        0x00000874:    d5f2        ..      BPL      0x85c ; ILI9341_Initial + 660
        0x00000876:    2200        ."      MOVS     r2,#0
        0x00000878:    6002        .`      STR      r2,[r0,#0]
        0x0000087a:    600a        .`      STR      r2,[r1,#0]
        0x0000087c:    f04f40c0    O..@    MOV      r0,#0x60000000
        0x00000880:    2229        )"      MOVS     r2,#0x29
        0x00000882:    8002        ..      STRH     r2,[r0,#0]
        0x00000884:    2201        ."      MOVS     r2,#1
        0x00000886:    a003        ..      ADR      r0,{pc}+0xe ; 0x894
        0x00000888:    600a        .`      STR      r2,[r1,#0]
        0x0000088a:    e8bd4ff0    ...O    POP      {r4-r11,lr}
        0x0000088e:    f001b951    ..Q.    B.W      puts ; 0x1b34
        0x00000892:    bf00        ..      NOP      
    $d.8
        0x00000894:    74696e49    Init    DCD    1953066569
        0x00000898:    206c6169    ial     DCD    543973737
        0x0000089c:    39494c49    ILI9    DCD    961104969
        0x000008a0:    20313433    341     DCD    540095539
        0x000008a4:    2044434c    LCD     DCD    541344588
        0x000008a8:    75646f4d    Modu    DCD    1969516365
        0x000008ac:    6420656c    le d    DCD    1679844716
        0x000008b0:    2e656e6f    one.    DCD    778399343
        0x000008b4:    0000000a    ....    DCD    10
    $t.10
    LCD_BlankArea
        0x000008b8:    e92d4ff0    -..O    PUSH     {r4-r11,lr}
        0x000008bc:    18cd        ..      ADDS     r5,r1,r3
        0x000008be:    1886        ..      ADDS     r6,r0,r2
        0x000008c0:    1e6c        l.      SUBS     r4,r5,#1
        0x000008c2:    f64415cc    D...    MOV      r5,#0x49cc
        0x000008c6:    f2400c00    @...    MOVW     r12,#0
        0x000008ca:    3e01        .>      SUBS     r6,#1
        0x000008cc:    f2c40500    ....    MOVT     r5,#0x4000
        0x000008d0:    f04f0800    O...    MOV      r8,#0
        0x000008d4:    f04f49c0    O..I    MOV      r9,#0x60000000
        0x000008d8:    272a        *'      MOVS     r7,#0x2a
        0x000008da:    f2c60c03    ....    MOVT     r12,#0x6003
        0x000008de:    fa1ffe86    ....    UXTH     lr,r6
        0x000008e2:    f8c58000    ....    STR      r8,[r5,#0]
        0x000008e6:    f8a97000    ...p    STRH     r7,[r9,#0]
        0x000008ea:    f04f0b01    O...    MOV      r11,#1
        0x000008ee:    0a07        ..      LSRS     r7,r0,#8
        0x000008f0:    f8c5b000    ....    STR      r11,[r5,#0]
        0x000008f4:    f8ac7000    ...p    STRH     r7,[r12,#0]
        0x000008f8:    f8ac0000    ....    STRH     r0,[r12,#0]
        0x000008fc:    ea4f201e    O..     LSR      r0,lr,#8
        0x00000900:    f8ac0000    ....    STRH     r0,[r12,#0]
        0x00000904:    202b        +       MOVS     r0,#0x2b
        0x00000906:    fa1ffa84    ....    UXTH     r10,r4
        0x0000090a:    f8ac6000    ...`    STRH     r6,[r12,#0]
        0x0000090e:    f8c58000    ....    STR      r8,[r5,#0]
        0x00000912:    f8a90000    ....    STRH     r0,[r9,#0]
        0x00000916:    0a08        ..      LSRS     r0,r1,#8
        0x00000918:    f8c5b000    ....    STR      r11,[r5,#0]
        0x0000091c:    f8ac0000    ....    STRH     r0,[r12,#0]
        0x00000920:    ea4f201a    O..     LSR      r0,r10,#8
        0x00000924:    f8ac1000    ....    STRH     r1,[r12,#0]
        0x00000928:    f8ac0000    ....    STRH     r0,[r12,#0]
        0x0000092c:    202c        ,       MOVS     r0,#0x2c
        0x0000092e:    2b00        .+      CMP      r3,#0
        0x00000930:    f8ac4000    ...@    STRH     r4,[r12,#0]
        0x00000934:    f8c58000    ....    STR      r8,[r5,#0]
        0x00000938:    f8a90000    ....    STRH     r0,[r9,#0]
        0x0000093c:    f8c5b000    ....    STR      r11,[r5,#0]
        0x00000940:    d053        S.      BEQ      0x9ea ; LCD_BlankArea + 306
        0x00000942:    9809        ..      LDR      r0,[sp,#0x24]
        0x00000944:    2b04        .+      CMP      r3,#4
        0x00000946:    f0030e03    ....    AND      lr,r3,#3
        0x0000094a:    d250        P.      BCS      0x9ee ; LCD_BlankArea + 310
        0x0000094c:    f1be0f00    ....    CMP      lr,#0
        0x00000950:    d04b        K.      BEQ      0x9ea ; LCD_BlankArea + 306
        0x00000952:    b1f2        ..      CBZ      r2,0x992 ; LCD_BlankArea + 218
        0x00000954:    2a04        .*      CMP      r2,#4
        0x00000956:    f0020103    ....    AND      r1,r2,#3
        0x0000095a:    d30f        ..      BCC      0x97c ; LCD_BlankArea + 196
        0x0000095c:    f0220303    "...    BIC      r3,r2,#3
        0x00000960:    2400        .$      MOVS     r4,#0
        0x00000962:    bf00        ..      NOP      
        0x00000964:    3404        .4      ADDS     r4,#4
        0x00000966:    b2a5        ..      UXTH     r5,r4
        0x00000968:    429d        .B      CMP      r5,r3
        0x0000096a:    f8ac0000    ....    STRH     r0,[r12,#0]
        0x0000096e:    f8ac0000    ....    STRH     r0,[r12,#0]
        0x00000972:    f8ac0000    ....    STRH     r0,[r12,#0]
        0x00000976:    f8ac0000    ....    STRH     r0,[r12,#0]
        0x0000097a:    d1f3        ..      BNE      0x964 ; LCD_BlankArea + 172
        0x0000097c:    b149        I.      CBZ      r1,0x992 ; LCD_BlankArea + 218
        0x0000097e:    2901        .)      CMP      r1,#1
        0x00000980:    f8ac0000    ....    STRH     r0,[r12,#0]
        0x00000984:    d005        ..      BEQ      0x992 ; LCD_BlankArea + 218
        0x00000986:    2902        .)      CMP      r1,#2
        0x00000988:    f8ac0000    ....    STRH     r0,[r12,#0]
        0x0000098c:    bf18        ..      IT       NE
        0x0000098e:    f8ac0000    ....    STRHNE   r0,[r12,#0]
        0x00000992:    f1be0f01    ....    CMP      lr,#1
        0x00000996:    d028        (.      BEQ      0x9ea ; LCD_BlankArea + 306
        0x00000998:    f1a20101    ....    SUB      r1,r2,#1
        0x0000099c:    b1fa        ..      CBZ      r2,0x9de ; LCD_BlankArea + 294
        0x0000099e:    b28b        ..      UXTH     r3,r1
        0x000009a0:    2b03        .+      CMP      r3,#3
        0x000009a2:    f0020303    ....    AND      r3,r2,#3
        0x000009a6:    d30f        ..      BCC      0x9c8 ; LCD_BlankArea + 272
        0x000009a8:    f0220403    "...    BIC      r4,r2,#3
        0x000009ac:    2500        .%      MOVS     r5,#0
        0x000009ae:    bf00        ..      NOP      
        0x000009b0:    3504        .5      ADDS     r5,#4
        0x000009b2:    b2ae        ..      UXTH     r6,r5
        0x000009b4:    42a6        .B      CMP      r6,r4
        0x000009b6:    f8ac0000    ....    STRH     r0,[r12,#0]
        0x000009ba:    f8ac0000    ....    STRH     r0,[r12,#0]
        0x000009be:    f8ac0000    ....    STRH     r0,[r12,#0]
        0x000009c2:    f8ac0000    ....    STRH     r0,[r12,#0]
        0x000009c6:    d1f3        ..      BNE      0x9b0 ; LCD_BlankArea + 248
        0x000009c8:    b14b        K.      CBZ      r3,0x9de ; LCD_BlankArea + 294
        0x000009ca:    2b01        .+      CMP      r3,#1
        0x000009cc:    f8ac0000    ....    STRH     r0,[r12,#0]
        0x000009d0:    d005        ..      BEQ      0x9de ; LCD_BlankArea + 294
        0x000009d2:    2b02        .+      CMP      r3,#2
        0x000009d4:    f8ac0000    ....    STRH     r0,[r12,#0]
        0x000009d8:    bf18        ..      IT       NE
        0x000009da:    f8ac0000    ....    STRHNE   r0,[r12,#0]
        0x000009de:    f1be0f02    ....    CMP      lr,#2
        0x000009e2:    bf18        ..      IT       NE
        0x000009e4:    2a00        .*      CMPNE    r2,#0
        0x000009e6:    f0408084    @...    BNE.W    0xaf2 ; LCD_BlankArea + 570
        0x000009ea:    e8bd8ff0    ....    POP      {r4-r11,pc}
        0x000009ee:    f0230303    #...    BIC      r3,r3,#3
        0x000009f2:    f0020103    ....    AND      r1,r2,#3
        0x000009f6:    f0220403    "...    BIC      r4,r2,#3
        0x000009fa:    2500        .%      MOVS     r5,#0
        0x000009fc:    e004        ..      B        0xa08 ; LCD_BlankArea + 336
        0x000009fe:    bf00        ..      NOP      
        0x00000a00:    3504        .5      ADDS     r5,#4
        0x00000a02:    b2ae        ..      UXTH     r6,r5
        0x00000a04:    429e        .B      CMP      r6,r3
        0x00000a06:    d0a1        ..      BEQ      0x94c ; LCD_BlankArea + 148
        0x00000a08:    2a00        .*      CMP      r2,#0
        0x00000a0a:    d0f9        ..      BEQ      0xa00 ; LCD_BlankArea + 328
        0x00000a0c:    2a04        .*      CMP      r2,#4
        0x00000a0e:    d30d        ..      BCC      0xa2c ; LCD_BlankArea + 372
        0x00000a10:    2600        .&      MOVS     r6,#0
        0x00000a12:    bf00        ..      NOP      
        0x00000a14:    3604        .6      ADDS     r6,#4
        0x00000a16:    b2b7        ..      UXTH     r7,r6
        0x00000a18:    42a7        .B      CMP      r7,r4
        0x00000a1a:    f8ac0000    ....    STRH     r0,[r12,#0]
        0x00000a1e:    f8ac0000    ....    STRH     r0,[r12,#0]
        0x00000a22:    f8ac0000    ....    STRH     r0,[r12,#0]
        0x00000a26:    f8ac0000    ....    STRH     r0,[r12,#0]
        0x00000a2a:    d1f3        ..      BNE      0xa14 ; LCD_BlankArea + 348
        0x00000a2c:    b149        I.      CBZ      r1,0xa42 ; LCD_BlankArea + 394
        0x00000a2e:    2901        .)      CMP      r1,#1
        0x00000a30:    f8ac0000    ....    STRH     r0,[r12,#0]
        0x00000a34:    d005        ..      BEQ      0xa42 ; LCD_BlankArea + 394
        0x00000a36:    2902        .)      CMP      r1,#2
        0x00000a38:    f8ac0000    ....    STRH     r0,[r12,#0]
        0x00000a3c:    bf18        ..      IT       NE
        0x00000a3e:    f8ac0000    ....    STRHNE   r0,[r12,#0]
        0x00000a42:    2a00        .*      CMP      r2,#0
        0x00000a44:    d0dc        ..      BEQ      0xa00 ; LCD_BlankArea + 328
        0x00000a46:    2a04        .*      CMP      r2,#4
        0x00000a48:    d30c        ..      BCC      0xa64 ; LCD_BlankArea + 428
        0x00000a4a:    2600        .&      MOVS     r6,#0
        0x00000a4c:    3604        .6      ADDS     r6,#4
        0x00000a4e:    b2b7        ..      UXTH     r7,r6
        0x00000a50:    42a7        .B      CMP      r7,r4
        0x00000a52:    f8ac0000    ....    STRH     r0,[r12,#0]
        0x00000a56:    f8ac0000    ....    STRH     r0,[r12,#0]
        0x00000a5a:    f8ac0000    ....    STRH     r0,[r12,#0]
        0x00000a5e:    f8ac0000    ....    STRH     r0,[r12,#0]
        0x00000a62:    d1f3        ..      BNE      0xa4c ; LCD_BlankArea + 404
        0x00000a64:    b149        I.      CBZ      r1,0xa7a ; LCD_BlankArea + 450
        0x00000a66:    2901        .)      CMP      r1,#1
        0x00000a68:    f8ac0000    ....    STRH     r0,[r12,#0]
        0x00000a6c:    d005        ..      BEQ      0xa7a ; LCD_BlankArea + 450
        0x00000a6e:    2902        .)      CMP      r1,#2
        0x00000a70:    f8ac0000    ....    STRH     r0,[r12,#0]
        0x00000a74:    bf18        ..      IT       NE
        0x00000a76:    f8ac0000    ....    STRHNE   r0,[r12,#0]
        0x00000a7a:    2a00        .*      CMP      r2,#0
        0x00000a7c:    d0c0        ..      BEQ      0xa00 ; LCD_BlankArea + 328
        0x00000a7e:    2a04        .*      CMP      r2,#4
        0x00000a80:    d30c        ..      BCC      0xa9c ; LCD_BlankArea + 484
        0x00000a82:    2600        .&      MOVS     r6,#0
        0x00000a84:    3604        .6      ADDS     r6,#4
        0x00000a86:    b2b7        ..      UXTH     r7,r6
        0x00000a88:    42a7        .B      CMP      r7,r4
        0x00000a8a:    f8ac0000    ....    STRH     r0,[r12,#0]
        0x00000a8e:    f8ac0000    ....    STRH     r0,[r12,#0]
        0x00000a92:    f8ac0000    ....    STRH     r0,[r12,#0]
        0x00000a96:    f8ac0000    ....    STRH     r0,[r12,#0]
        0x00000a9a:    d1f3        ..      BNE      0xa84 ; LCD_BlankArea + 460
        0x00000a9c:    b149        I.      CBZ      r1,0xab2 ; LCD_BlankArea + 506
        0x00000a9e:    2901        .)      CMP      r1,#1
        0x00000aa0:    f8ac0000    ....    STRH     r0,[r12,#0]
        0x00000aa4:    d005        ..      BEQ      0xab2 ; LCD_BlankArea + 506
        0x00000aa6:    2902        .)      CMP      r1,#2
        0x00000aa8:    f8ac0000    ....    STRH     r0,[r12,#0]
        0x00000aac:    bf18        ..      IT       NE
        0x00000aae:    f8ac0000    ....    STRHNE   r0,[r12,#0]
        0x00000ab2:    2a00        .*      CMP      r2,#0
        0x00000ab4:    d0a4        ..      BEQ      0xa00 ; LCD_BlankArea + 328
        0x00000ab6:    2a04        .*      CMP      r2,#4
        0x00000ab8:    d30c        ..      BCC      0xad4 ; LCD_BlankArea + 540
        0x00000aba:    2600        .&      MOVS     r6,#0
        0x00000abc:    3604        .6      ADDS     r6,#4
        0x00000abe:    b2b7        ..      UXTH     r7,r6
        0x00000ac0:    42a7        .B      CMP      r7,r4
        0x00000ac2:    f8ac0000    ....    STRH     r0,[r12,#0]
        0x00000ac6:    f8ac0000    ....    STRH     r0,[r12,#0]
        0x00000aca:    f8ac0000    ....    STRH     r0,[r12,#0]
        0x00000ace:    f8ac0000    ....    STRH     r0,[r12,#0]
        0x00000ad2:    d1f3        ..      BNE      0xabc ; LCD_BlankArea + 516
        0x00000ad4:    2900        .)      CMP      r1,#0
        0x00000ad6:    f43faf93    ?...    BEQ.W    0xa00 ; LCD_BlankArea + 328
        0x00000ada:    2901        .)      CMP      r1,#1
        0x00000adc:    f8ac0000    ....    STRH     r0,[r12,#0]
        0x00000ae0:    f43faf8e    ?...    BEQ.W    0xa00 ; LCD_BlankArea + 328
        0x00000ae4:    2902        .)      CMP      r1,#2
        0x00000ae6:    f8ac0000    ....    STRH     r0,[r12,#0]
        0x00000aea:    bf18        ..      IT       NE
        0x00000aec:    f8ac0000    ....    STRHNE   r0,[r12,#0]
        0x00000af0:    e786        ..      B        0xa00 ; LCD_BlankArea + 328
        0x00000af2:    b289        ..      UXTH     r1,r1
        0x00000af4:    2903        .)      CMP      r1,#3
        0x00000af6:    f0020103    ....    AND      r1,r2,#3
        0x00000afa:    d30f        ..      BCC      0xb1c ; LCD_BlankArea + 612
        0x00000afc:    f0220203    "...    BIC      r2,r2,#3
        0x00000b00:    2300        .#      MOVS     r3,#0
        0x00000b02:    bf00        ..      NOP      
        0x00000b04:    3304        .3      ADDS     r3,#4
        0x00000b06:    b29f        ..      UXTH     r7,r3
        0x00000b08:    4297        .B      CMP      r7,r2
        0x00000b0a:    f8ac0000    ....    STRH     r0,[r12,#0]
        0x00000b0e:    f8ac0000    ....    STRH     r0,[r12,#0]
        0x00000b12:    f8ac0000    ....    STRH     r0,[r12,#0]
        0x00000b16:    f8ac0000    ....    STRH     r0,[r12,#0]
        0x00000b1a:    d1f3        ..      BNE      0xb04 ; LCD_BlankArea + 588
        0x00000b1c:    2900        .)      CMP      r1,#0
        0x00000b1e:    bf08        ..      IT       EQ
        0x00000b20:    e8bd8ff0    ....    POPEQ    {r4-r11,pc}
        0x00000b24:    2901        .)      CMP      r1,#1
        0x00000b26:    f8ac0000    ....    STRH     r0,[r12,#0]
        0x00000b2a:    f43faf5e    ?.^.    BEQ      0x9ea ; LCD_BlankArea + 306
        0x00000b2e:    2902        .)      CMP      r1,#2
        0x00000b30:    f8ac0000    ....    STRH     r0,[r12,#0]
        0x00000b34:    bf18        ..      IT       NE
        0x00000b36:    f8ac0000    ....    STRHNE   r0,[r12,#0]
        0x00000b3a:    e8bd8ff0    ....    POP      {r4-r11,pc}
        0x00000b3e:    0000        ..      MOVS     r0,r0
    LCD_Draw_Circle
        0x00000b40:    2a00        .*      CMP      r2,#0
        0x00000b42:    bf48        H.      IT       MI
        0x00000b44:    4770        pG      BXMI     lr
        0x00000b46:    e92d4ff0    -..O    PUSH     {r4-r11,lr}
        0x00000b4a:    b085        ..      SUB      sp,sp,#0x14
        0x00000b4c:    469b        .F      MOV      r11,r3
        0x00000b4e:    4615        .F      MOV      r5,r2
        0x00000b50:    4688        .F      MOV      r8,r1
        0x00000b52:    f1c20101    ....    RSB      r1,r2,#1
        0x00000b56:    f04f0a00    O...    MOV      r10,#0
        0x00000b5a:    2200        ."      MOVS     r2,#0
        0x00000b5c:    9004        ..      STR      r0,[sp,#0x10]
        0x00000b5e:    bf00        ..      NOP      
        0x00000b60:    9804        ..      LDR      r0,[sp,#0x10]
        0x00000b62:    9103        ..      STR      r1,[sp,#0xc]
        0x00000b64:    4428        (D      ADD      r0,r0,r5
        0x00000b66:    eb080102    ....    ADD      r1,r8,r2
        0x00000b6a:    b280        ..      UXTH     r0,r0
        0x00000b6c:    b28e        ..      UXTH     r6,r1
        0x00000b6e:    4601        .F      MOV      r1,r0
        0x00000b70:    4614        .F      MOV      r4,r2
        0x00000b72:    9202        ..      STR      r2,[sp,#8]
        0x00000b74:    4632        2F      MOV      r2,r6
        0x00000b76:    4633        3F      MOV      r3,r6
        0x00000b78:    9001        ..      STR      r0,[sp,#4]
        0x00000b7a:    f000fa47    ..G.    BL       LCD_SetWindow ; 0x100c
        0x00000b7e:    4658        XF      MOV      r0,r11
        0x00000b80:    f000fa70    ..p.    BL       LCD_WR_DATA ; 0x1064
        0x00000b84:    9804        ..      LDR      r0,[sp,#0x10]
        0x00000b86:    eb050108    ....    ADD      r1,r5,r8
        0x00000b8a:    4420         D      ADD      r0,r0,r4
        0x00000b8c:    fa1ff980    ....    UXTH     r9,r0
        0x00000b90:    4647        GF      MOV      r7,r8
        0x00000b92:    fa1ff881    ....    UXTH     r8,r1
        0x00000b96:    4648        HF      MOV      r0,r9
        0x00000b98:    4649        IF      MOV      r1,r9
        0x00000b9a:    4642        BF      MOV      r2,r8
        0x00000b9c:    4643        CF      MOV      r3,r8
        0x00000b9e:    f000fa35    ..5.    BL       LCD_SetWindow ; 0x100c
        0x00000ba2:    4658        XF      MOV      r0,r11
        0x00000ba4:    f000fa5e    ..^.    BL       LCD_WR_DATA ; 0x1064
        0x00000ba8:    9804        ..      LDR      r0,[sp,#0x10]
        0x00000baa:    4642        BF      MOV      r2,r8
        0x00000bac:    4450        PD      ADD      r0,r0,r10
        0x00000bae:    b284        ..      UXTH     r4,r0
        0x00000bb0:    4620         F      MOV      r0,r4
        0x00000bb2:    4621        !F      MOV      r1,r4
        0x00000bb4:    4643        CF      MOV      r3,r8
        0x00000bb6:    46b8        .F      MOV      r8,r7
        0x00000bb8:    f000fa28    ..(.    BL       LCD_SetWindow ; 0x100c
        0x00000bbc:    4658        XF      MOV      r0,r11
        0x00000bbe:    f000fa51    ..Q.    BL       LCD_WR_DATA ; 0x1064
        0x00000bc2:    9804        ..      LDR      r0,[sp,#0x10]
        0x00000bc4:    4632        2F      MOV      r2,r6
        0x00000bc6:    1b40        @.      SUBS     r0,r0,r5
        0x00000bc8:    b287        ..      UXTH     r7,r0
        0x00000bca:    4638        8F      MOV      r0,r7
        0x00000bcc:    4639        9F      MOV      r1,r7
        0x00000bce:    4633        3F      MOV      r3,r6
        0x00000bd0:    f000fa1c    ....    BL       LCD_SetWindow ; 0x100c
        0x00000bd4:    4658        XF      MOV      r0,r11
        0x00000bd6:    f000fa45    ..E.    BL       LCD_WR_DATA ; 0x1064
        0x00000bda:    eb08000a    ....    ADD      r0,r8,r10
        0x00000bde:    b286        ..      UXTH     r6,r0
        0x00000be0:    4638        8F      MOV      r0,r7
        0x00000be2:    4639        9F      MOV      r1,r7
        0x00000be4:    4632        2F      MOV      r2,r6
        0x00000be6:    4633        3F      MOV      r3,r6
        0x00000be8:    f000fa10    ....    BL       LCD_SetWindow ; 0x100c
        0x00000bec:    4658        XF      MOV      r0,r11
        0x00000bee:    f000fa39    ..9.    BL       LCD_WR_DATA ; 0x1064
        0x00000bf2:    eba80005    ....    SUB      r0,r8,r5
        0x00000bf6:    b287        ..      UXTH     r7,r0
        0x00000bf8:    4620         F      MOV      r0,r4
        0x00000bfa:    4621        !F      MOV      r1,r4
        0x00000bfc:    463a        :F      MOV      r2,r7
        0x00000bfe:    463b        ;F      MOV      r3,r7
        0x00000c00:    f000fa04    ....    BL       LCD_SetWindow ; 0x100c
        0x00000c04:    4658        XF      MOV      r0,r11
        0x00000c06:    f000fa2d    ..-.    BL       LCD_WR_DATA ; 0x1064
        0x00000c0a:    4648        HF      MOV      r0,r9
        0x00000c0c:    4649        IF      MOV      r1,r9
        0x00000c0e:    463a        :F      MOV      r2,r7
        0x00000c10:    463b        ;F      MOV      r3,r7
        0x00000c12:    f000f9fb    ....    BL       LCD_SetWindow ; 0x100c
        0x00000c16:    4658        XF      MOV      r0,r11
        0x00000c18:    f000fa24    ..$.    BL       LCD_WR_DATA ; 0x1064
        0x00000c1c:    9801        ..      LDR      r0,[sp,#4]
        0x00000c1e:    4632        2F      MOV      r2,r6
        0x00000c20:    4601        .F      MOV      r1,r0
        0x00000c22:    4633        3F      MOV      r3,r6
        0x00000c24:    f000f9f2    ....    BL       LCD_SetWindow ; 0x100c
        0x00000c28:    4658        XF      MOV      r0,r11
        0x00000c2a:    f000fa1b    ....    BL       LCD_WR_DATA ; 0x1064
        0x00000c2e:    9f02        ..      LDR      r7,[sp,#8]
        0x00000c30:    9b03        ..      LDR      r3,[sp,#0xc]
        0x00000c32:    1c78        x.      ADDS     r0,r7,#1
        0x00000c34:    1e69        i.      SUBS     r1,r5,#1
        0x00000c36:    4602        .F      MOV      r2,r0
        0x00000c38:    2b01        .+      CMP      r3,#1
        0x00000c3a:    bfa4        ..      ITT      GE
        0x00000c3c:    460d        .F      MOVGE    r5,r1
        0x00000c3e:    1a52        R.      SUBGE    r2,r2,r1
        0x00000c40:    eb030142    ..B.    ADD      r1,r3,r2,LSL #1
        0x00000c44:    3101        .1      ADDS     r1,#1
        0x00000c46:    f1aa0a01    ....    SUB      r10,r10,#1
        0x00000c4a:    42bd        .B      CMP      r5,r7
        0x00000c4c:    4602        .F      MOV      r2,r0
        0x00000c4e:    dc87        ..      BGT      0xb60 ; LCD_Draw_Circle + 32
        0x00000c50:    b005        ..      ADD      sp,sp,#0x14
        0x00000c52:    e8bd4ff0    ...O    POP      {r4-r11,lr}
        0x00000c56:    4770        pG      BX       lr
    LCD_Draw_Rectangular
        0x00000c58:    e92d47f0    -..G    PUSH     {r4-r10,lr}
        0x00000c5c:    b082        ..      SUB      sp,sp,#8
        0x00000c5e:    f8dd8028    ..(.    LDR      r8,[sp,#0x28]
        0x00000c62:    461c        .F      MOV      r4,r3
        0x00000c64:    eb030a01    ....    ADD      r10,r3,r1
        0x00000c68:    2301        .#      MOVS     r3,#1
        0x00000c6a:    4617        .F      MOV      r7,r2
        0x00000c6c:    460d        .F      MOV      r5,r1
        0x00000c6e:    4606        .F      MOV      r6,r0
        0x00000c70:    eb020900    ....    ADD      r9,r2,r0
        0x00000c74:    f8cd8000    ....    STR      r8,[sp,#0]
        0x00000c78:    f7fffe1e    ....    BL       LCD_BlankArea ; 0x8b8
        0x00000c7c:    f1aa0001    ....    SUB      r0,r10,#1
        0x00000c80:    b281        ..      UXTH     r1,r0
        0x00000c82:    4630        0F      MOV      r0,r6
        0x00000c84:    463a        :F      MOV      r2,r7
        0x00000c86:    2301        .#      MOVS     r3,#1
        0x00000c88:    f8cd8000    ....    STR      r8,[sp,#0]
        0x00000c8c:    f7fffe14    ....    BL       LCD_BlankArea ; 0x8b8
        0x00000c90:    4630        0F      MOV      r0,r6
        0x00000c92:    4629        )F      MOV      r1,r5
        0x00000c94:    2201        ."      MOVS     r2,#1
        0x00000c96:    4623        #F      MOV      r3,r4
        0x00000c98:    f8cd8000    ....    STR      r8,[sp,#0]
        0x00000c9c:    f7fffe0c    ....    BL       LCD_BlankArea ; 0x8b8
        0x00000ca0:    f1a90001    ....    SUB      r0,r9,#1
        0x00000ca4:    b280        ..      UXTH     r0,r0
        0x00000ca6:    4629        )F      MOV      r1,r5
        0x00000ca8:    2201        ."      MOVS     r2,#1
        0x00000caa:    4623        #F      MOV      r3,r4
        0x00000cac:    f8cd8000    ....    STR      r8,[sp,#0]
        0x00000cb0:    f7fffe02    ....    BL       LCD_BlankArea ; 0x8b8
        0x00000cb4:    1c68        h.      ADDS     r0,r5,#1
        0x00000cb6:    b281        ..      UXTH     r1,r0
        0x00000cb8:    4630        0F      MOV      r0,r6
        0x00000cba:    463a        :F      MOV      r2,r7
        0x00000cbc:    2301        .#      MOVS     r3,#1
        0x00000cbe:    f8cd8000    ....    STR      r8,[sp,#0]
        0x00000cc2:    f7fffdf9    ....    BL       LCD_BlankArea ; 0x8b8
        0x00000cc6:    f1aa0002    ....    SUB      r0,r10,#2
        0x00000cca:    b281        ..      UXTH     r1,r0
        0x00000ccc:    4630        0F      MOV      r0,r6
        0x00000cce:    463a        :F      MOV      r2,r7
        0x00000cd0:    2301        .#      MOVS     r3,#1
        0x00000cd2:    f8cd8000    ....    STR      r8,[sp,#0]
        0x00000cd6:    f7fffdef    ....    BL       LCD_BlankArea ; 0x8b8
        0x00000cda:    1c70        p.      ADDS     r0,r6,#1
        0x00000cdc:    b280        ..      UXTH     r0,r0
        0x00000cde:    4629        )F      MOV      r1,r5
        0x00000ce0:    2201        ."      MOVS     r2,#1
        0x00000ce2:    4623        #F      MOV      r3,r4
        0x00000ce4:    f8cd8000    ....    STR      r8,[sp,#0]
        0x00000ce8:    f7fffde6    ....    BL       LCD_BlankArea ; 0x8b8
        0x00000cec:    f1a90002    ....    SUB      r0,r9,#2
        0x00000cf0:    b280        ..      UXTH     r0,r0
        0x00000cf2:    4629        )F      MOV      r1,r5
        0x00000cf4:    2201        ."      MOVS     r2,#1
        0x00000cf6:    4623        #F      MOV      r3,r4
        0x00000cf8:    f8cd8000    ....    STR      r8,[sp,#0]
        0x00000cfc:    f7fffddc    ....    BL       LCD_BlankArea ; 0x8b8
        0x00000d00:    b002        ..      ADD      sp,sp,#8
        0x00000d02:    e8bd87f0    ....    POP      {r4-r10,pc}
        0x00000d06:    0000        ..      MOVS     r0,r0
    LCD_Picture
        0x00000d08:    e92d4ff0    -..O    PUSH     {r4-r11,lr}
        0x00000d0c:    b08b        ..      SUB      sp,sp,#0x2c
        0x00000d0e:    9200        ..      STR      r2,[sp,#0]
        0x00000d10:    9a14        ..      LDR      r2,[sp,#0x50]
        0x00000d12:    9102        ..      STR      r1,[sp,#8]
        0x00000d14:    2a00        .*      CMP      r2,#0
        0x00000d16:    9009        ..      STR      r0,[sp,#0x24]
        0x00000d18:    f0008175    ..u.    BEQ.W    0x1006 ; LCD_Picture + 766
        0x00000d1c:    f0030003    ....    AND      r0,r3,#3
        0x00000d20:    9005        ..      STR      r0,[sp,#0x14]
        0x00000d22:    f0230003    #...    BIC      r0,r3,#3
        0x00000d26:    9008        ..      STR      r0,[sp,#0x20]
        0x00000d28:    9800        ..      LDR      r0,[sp,#0]
        0x00000d2a:    f2400e00    @...    MOVW     lr,#0
        0x00000d2e:    f64414cc    D...    MOV      r4,#0x49cc
        0x00000d32:    0059        Y.      LSLS     r1,r3,#1
        0x00000d34:    f2c60e03    ....    MOVT     lr,#0x6003
        0x00000d38:    f2c40400    ....    MOVT     r4,#0x4000
        0x00000d3c:    f1a00b02    ....    SUB      r11,r0,#2
        0x00000d40:    9104        ..      STR      r1,[sp,#0x10]
        0x00000d42:    2500        .%      MOVS     r5,#0
        0x00000d44:    f04f47c0    O..G    MOV      r7,#0x60000000
        0x00000d48:    2601        .&      MOVS     r6,#1
        0x00000d4a:    2100        .!      MOVS     r1,#0
        0x00000d4c:    9107        ..      STR      r1,[sp,#0x1c]
        0x00000d4e:    9301        ..      STR      r3,[sp,#4]
        0x00000d50:    e00c        ..      B        0xd6c ; LCD_Picture + 100
        0x00000d52:    bf00        ..      NOP      
        0x00000d54:    9907        ..      LDR      r1,[sp,#0x1c]
        0x00000d56:    9814        ..      LDR      r0,[sp,#0x50]
        0x00000d58:    3101        .1      ADDS     r1,#1
        0x00000d5a:    f8ddc010    ....    LDR      r12,[sp,#0x10]
        0x00000d5e:    4281        .B      CMP      r1,r0
        0x00000d60:    980a        ..      LDR      r0,[sp,#0x28]
        0x00000d62:    44e3        .D      ADD      r11,r11,r12
        0x00000d64:    4460        `D      ADD      r0,r0,r12
        0x00000d66:    9107        ..      STR      r1,[sp,#0x1c]
        0x00000d68:    f000814d    ..M.    BEQ.W    0x1006 ; LCD_Picture + 766
        0x00000d6c:    2b00        .+      CMP      r3,#0
        0x00000d6e:    900a        ..      STR      r0,[sp,#0x28]
        0x00000d70:    d0f0        ..      BEQ      0xd54 ; LCD_Picture + 76
        0x00000d72:    9802        ..      LDR      r0,[sp,#8]
        0x00000d74:    9907        ..      LDR      r1,[sp,#0x1c]
        0x00000d76:    2b04        .+      CMP      r3,#4
        0x00000d78:    eb010800    ....    ADD      r8,r1,r0
        0x00000d7c:    fa1ff188    ....    UXTH     r1,r8
        0x00000d80:    ea4f2a11    O..*    LSR      r10,r1,#8
        0x00000d84:    f04f0900    O...    MOV      r9,#0
        0x00000d88:    f8cdb018    ....    STR      r11,[sp,#0x18]
        0x00000d8c:    f0c080a5    ....    BCC.W    0xeda ; LCD_Picture + 466
        0x00000d90:    232a        *#      MOVS     r3,#0x2a
        0x00000d92:    bf00        ..      NOP      
        0x00000d94:    9809        ..      LDR      r0,[sp,#0x24]
        0x00000d96:    6025        %`      STR      r5,[r4,#0]
        0x00000d98:    eb090100    ....    ADD      r1,r9,r0
        0x00000d9c:    b288        ..      UXTH     r0,r1
        0x00000d9e:    0a00        ..      LSRS     r0,r0,#8
        0x00000da0:    803b        ;.      STRH     r3,[r7,#0]
        0x00000da2:    6026        &`      STR      r6,[r4,#0]
        0x00000da4:    f8ae0000    ....    STRH     r0,[lr,#0]
        0x00000da8:    f8ae1000    ....    STRH     r1,[lr,#0]
        0x00000dac:    f8ae0000    ....    STRH     r0,[lr,#0]
        0x00000db0:    202b        +       MOVS     r0,#0x2b
        0x00000db2:    f8ae1000    ....    STRH     r1,[lr,#0]
        0x00000db6:    6025        %`      STR      r5,[r4,#0]
        0x00000db8:    f04f0c01    O...    MOV      r12,#1
        0x00000dbc:    8038        8.      STRH     r0,[r7,#0]
        0x00000dbe:    202c        ,       MOVS     r0,#0x2c
        0x00000dc0:    f8c4c000    ....    STR      r12,[r4,#0]
        0x00000dc4:    f8aea000    ....    STRH     r10,[lr,#0]
        0x00000dc8:    f8ae8000    ....    STRH     r8,[lr,#0]
        0x00000dcc:    f8aea000    ....    STRH     r10,[lr,#0]
        0x00000dd0:    f8ae8000    ....    STRH     r8,[lr,#0]
        0x00000dd4:    6025        %`      STR      r5,[r4,#0]
        0x00000dd6:    8038        8.      STRH     r0,[r7,#0]
        0x00000dd8:    f8c4c000    ....    STR      r12,[r4,#0]
        0x00000ddc:    f8bb0002    ....    LDRH     r0,[r11,#2]
        0x00000de0:    222b        +"      MOVS     r2,#0x2b
        0x00000de2:    f8ae0000    ....    STRH     r0,[lr,#0]
        0x00000de6:    1c48        H.      ADDS     r0,r1,#1
        0x00000de8:    b286        ..      UXTH     r6,r0
        0x00000dea:    0a36        6.      LSRS     r6,r6,#8
        0x00000dec:    6025        %`      STR      r5,[r4,#0]
        0x00000dee:    803b        ;.      STRH     r3,[r7,#0]
        0x00000df0:    f8c4c000    ....    STR      r12,[r4,#0]
        0x00000df4:    f8ae6000    ...`    STRH     r6,[lr,#0]
        0x00000df8:    f8ae0000    ....    STRH     r0,[lr,#0]
        0x00000dfc:    f8ae6000    ...`    STRH     r6,[lr,#0]
        0x00000e00:    f8ae0000    ....    STRH     r0,[lr,#0]
        0x00000e04:    202c        ,       MOVS     r0,#0x2c
        0x00000e06:    6025        %`      STR      r5,[r4,#0]
        0x00000e08:    803a        :.      STRH     r2,[r7,#0]
        0x00000e0a:    f8c4c000    ....    STR      r12,[r4,#0]
        0x00000e0e:    f8aea000    ....    STRH     r10,[lr,#0]
        0x00000e12:    f8ae8000    ....    STRH     r8,[lr,#0]
        0x00000e16:    f8aea000    ....    STRH     r10,[lr,#0]
        0x00000e1a:    f8ae8000    ....    STRH     r8,[lr,#0]
        0x00000e1e:    6025        %`      STR      r5,[r4,#0]
        0x00000e20:    8038        8.      STRH     r0,[r7,#0]
        0x00000e22:    f8c4c000    ....    STR      r12,[r4,#0]
        0x00000e26:    980a        ..      LDR      r0,[sp,#0x28]
        0x00000e28:    2700        .'      MOVS     r7,#0
        0x00000e2a:    eb000049    ..I.    ADD      r0,r0,r9,LSL #1
        0x00000e2e:    8846        F.      LDRH     r6,[r0,#2]
        0x00000e30:    252a        *%      MOVS     r5,#0x2a
        0x00000e32:    f8ae6000    ...`    STRH     r6,[lr,#0]
        0x00000e36:    1c8e        ..      ADDS     r6,r1,#2
        0x00000e38:    b2b2        ..      UXTH     r2,r6
        0x00000e3a:    6027        '`      STR      r7,[r4,#0]
        0x00000e3c:    f04f47c0    O..G    MOV      r7,#0x60000000
        0x00000e40:    0a12        ..      LSRS     r2,r2,#8
        0x00000e42:    803d        =.      STRH     r5,[r7,#0]
        0x00000e44:    f8c4c000    ....    STR      r12,[r4,#0]
        0x00000e48:    f8ae2000    ...     STRH     r2,[lr,#0]
        0x00000e4c:    f8ae6000    ...`    STRH     r6,[lr,#0]
        0x00000e50:    f8ae2000    ...     STRH     r2,[lr,#0]
        0x00000e54:    2500        .%      MOVS     r5,#0
        0x00000e56:    9a08        ..      LDR      r2,[sp,#0x20]
        0x00000e58:    f8ae6000    ...`    STRH     r6,[lr,#0]
        0x00000e5c:    262b        +&      MOVS     r6,#0x2b
        0x00000e5e:    6025        %`      STR      r5,[r4,#0]
        0x00000e60:    803e        >.      STRH     r6,[r7,#0]
        0x00000e62:    262c        ,&      MOVS     r6,#0x2c
        0x00000e64:    f8c4c000    ....    STR      r12,[r4,#0]
        0x00000e68:    f8aea000    ....    STRH     r10,[lr,#0]
        0x00000e6c:    f8ae8000    ....    STRH     r8,[lr,#0]
        0x00000e70:    f8aea000    ....    STRH     r10,[lr,#0]
        0x00000e74:    f8ae8000    ....    STRH     r8,[lr,#0]
        0x00000e78:    6025        %`      STR      r5,[r4,#0]
        0x00000e7a:    803e        >.      STRH     r6,[r7,#0]
        0x00000e7c:    f8c4c000    ....    STR      r12,[r4,#0]
        0x00000e80:    8880        ..      LDRH     r0,[r0,#4]
        0x00000e82:    232a        *#      MOVS     r3,#0x2a
        0x00000e84:    f8ae0000    ....    STRH     r0,[lr,#0]
        0x00000e88:    1cc8        ..      ADDS     r0,r1,#3
        0x00000e8a:    b281        ..      UXTH     r1,r0
        0x00000e8c:    0a09        ..      LSRS     r1,r1,#8
        0x00000e8e:    6025        %`      STR      r5,[r4,#0]
        0x00000e90:    803b        ;.      STRH     r3,[r7,#0]
        0x00000e92:    f8c4c000    ....    STR      r12,[r4,#0]
        0x00000e96:    f8ae1000    ....    STRH     r1,[lr,#0]
        0x00000e9a:    f8ae0000    ....    STRH     r0,[lr,#0]
        0x00000e9e:    f8ae1000    ....    STRH     r1,[lr,#0]
        0x00000ea2:    f8ae0000    ....    STRH     r0,[lr,#0]
        0x00000ea6:    202b        +       MOVS     r0,#0x2b
        0x00000ea8:    6025        %`      STR      r5,[r4,#0]
        0x00000eaa:    8038        8.      STRH     r0,[r7,#0]
        0x00000eac:    2601        .&      MOVS     r6,#1
        0x00000eae:    202c        ,       MOVS     r0,#0x2c
        0x00000eb0:    6026        &`      STR      r6,[r4,#0]
        0x00000eb2:    f8aea000    ....    STRH     r10,[lr,#0]
        0x00000eb6:    f8ae8000    ....    STRH     r8,[lr,#0]
        0x00000eba:    f8aea000    ....    STRH     r10,[lr,#0]
        0x00000ebe:    f8ae8000    ....    STRH     r8,[lr,#0]
        0x00000ec2:    6025        %`      STR      r5,[r4,#0]
        0x00000ec4:    8038        8.      STRH     r0,[r7,#0]
        0x00000ec6:    6026        &`      STR      r6,[r4,#0]
        0x00000ec8:    f83b0f08    ;...    LDRH     r0,[r11,#8]!
        0x00000ecc:    f1090904    ....    ADD      r9,r9,#4
        0x00000ed0:    454a        JE      CMP      r2,r9
        0x00000ed2:    f8ae0000    ....    STRH     r0,[lr,#0]
        0x00000ed6:    f47faf5d    ..].    BNE      0xd94 ; LCD_Picture + 140
        0x00000eda:    9805        ..      LDR      r0,[sp,#0x14]
        0x00000edc:    9b01        ..      LDR      r3,[sp,#4]
        0x00000ede:    f8ddb018    ....    LDR      r11,[sp,#0x18]
        0x00000ee2:    2800        .(      CMP      r0,#0
        0x00000ee4:    f43faf36    ?.6.    BEQ      0xd54 ; LCD_Picture + 76
        0x00000ee8:    9809        ..      LDR      r0,[sp,#0x24]
        0x00000eea:    6025        %`      STR      r5,[r4,#0]
        0x00000eec:    eb090c00    ....    ADD      r12,r9,r0
        0x00000ef0:    fa1ff18c    ....    UXTH     r1,r12
        0x00000ef4:    202a        *       MOVS     r0,#0x2a
        0x00000ef6:    0a09        ..      LSRS     r1,r1,#8
        0x00000ef8:    8038        8.      STRH     r0,[r7,#0]
        0x00000efa:    6026        &`      STR      r6,[r4,#0]
        0x00000efc:    f8ae1000    ....    STRH     r1,[lr,#0]
        0x00000f00:    f8aec000    ....    STRH     r12,[lr,#0]
        0x00000f04:    f8ae1000    ....    STRH     r1,[lr,#0]
        0x00000f08:    9807        ..      LDR      r0,[sp,#0x1c]
        0x00000f0a:    fb00f103    ....    MUL      r1,r0,r3
        0x00000f0e:    9800        ..      LDR      r0,[sp,#0]
        0x00000f10:    f8aec000    ....    STRH     r12,[lr,#0]
        0x00000f14:    eb000141    ..A.    ADD      r1,r0,r1,LSL #1
        0x00000f18:    f04f0c2c    O.,.    MOV      r12,#0x2c
        0x00000f1c:    202b        +       MOVS     r0,#0x2b
        0x00000f1e:    6025        %`      STR      r5,[r4,#0]
        0x00000f20:    8038        8.      STRH     r0,[r7,#0]
        0x00000f22:    6026        &`      STR      r6,[r4,#0]
        0x00000f24:    f8aea000    ....    STRH     r10,[lr,#0]
        0x00000f28:    f8ae8000    ....    STRH     r8,[lr,#0]
        0x00000f2c:    f8aea000    ....    STRH     r10,[lr,#0]
        0x00000f30:    f8ae8000    ....    STRH     r8,[lr,#0]
        0x00000f34:    6025        %`      STR      r5,[r4,#0]
        0x00000f36:    f8a7c000    ....    STRH     r12,[r7,#0]
        0x00000f3a:    6026        &`      STR      r6,[r4,#0]
        0x00000f3c:    9805        ..      LDR      r0,[sp,#0x14]
        0x00000f3e:    9103        ..      STR      r1,[sp,#0xc]
        0x00000f40:    f8311019    1...    LDRH     r1,[r1,r9,LSL #1]
        0x00000f44:    2801        .(      CMP      r0,#1
        0x00000f46:    f8ae1000    ....    STRH     r1,[lr,#0]
        0x00000f4a:    f43faf03    ?...    BEQ      0xd54 ; LCD_Picture + 76
        0x00000f4e:    9809        ..      LDR      r0,[sp,#0x24]
        0x00000f50:    f1090201    ....    ADD      r2,r9,#1
        0x00000f54:    1811        ..      ADDS     r1,r2,r0
        0x00000f56:    fa1ffc81    ....    UXTH     r12,r1
        0x00000f5a:    202a        *       MOVS     r0,#0x2a
        0x00000f5c:    6025        %`      STR      r5,[r4,#0]
        0x00000f5e:    8038        8.      STRH     r0,[r7,#0]
        0x00000f60:    ea4f201c    O..     LSR      r0,r12,#8
        0x00000f64:    6026        &`      STR      r6,[r4,#0]
        0x00000f66:    f8ae0000    ....    STRH     r0,[lr,#0]
        0x00000f6a:    f8ae1000    ....    STRH     r1,[lr,#0]
        0x00000f6e:    f8ae0000    ....    STRH     r0,[lr,#0]
        0x00000f72:    f04f0c2c    O.,.    MOV      r12,#0x2c
        0x00000f76:    202b        +       MOVS     r0,#0x2b
        0x00000f78:    f8ae1000    ....    STRH     r1,[lr,#0]
        0x00000f7c:    6025        %`      STR      r5,[r4,#0]
        0x00000f7e:    8038        8.      STRH     r0,[r7,#0]
        0x00000f80:    6026        &`      STR      r6,[r4,#0]
        0x00000f82:    f8aea000    ....    STRH     r10,[lr,#0]
        0x00000f86:    f8ae8000    ....    STRH     r8,[lr,#0]
        0x00000f8a:    f8aea000    ....    STRH     r10,[lr,#0]
        0x00000f8e:    f8ae8000    ....    STRH     r8,[lr,#0]
        0x00000f92:    6025        %`      STR      r5,[r4,#0]
        0x00000f94:    f8a7c000    ....    STRH     r12,[r7,#0]
        0x00000f98:    6026        &`      STR      r6,[r4,#0]
        0x00000f9a:    9803        ..      LDR      r0,[sp,#0xc]
        0x00000f9c:    f8301012    0...    LDRH     r1,[r0,r2,LSL #1]
        0x00000fa0:    9805        ..      LDR      r0,[sp,#0x14]
        0x00000fa2:    f8ae1000    ....    STRH     r1,[lr,#0]
        0x00000fa6:    2802        .(      CMP      r0,#2
        0x00000fa8:    f43faed4    ?...    BEQ      0xd54 ; LCD_Picture + 76
        0x00000fac:    9809        ..      LDR      r0,[sp,#0x24]
        0x00000fae:    f1090902    ....    ADD      r9,r9,#2
        0x00000fb2:    eb090100    ....    ADD      r1,r9,r0
        0x00000fb6:    fa1ffc81    ....    UXTH     r12,r1
        0x00000fba:    202a        *       MOVS     r0,#0x2a
        0x00000fbc:    6025        %`      STR      r5,[r4,#0]
        0x00000fbe:    8038        8.      STRH     r0,[r7,#0]
        0x00000fc0:    ea4f201c    O..     LSR      r0,r12,#8
        0x00000fc4:    6026        &`      STR      r6,[r4,#0]
        0x00000fc6:    f8ae0000    ....    STRH     r0,[lr,#0]
        0x00000fca:    f8ae1000    ....    STRH     r1,[lr,#0]
        0x00000fce:    f8ae0000    ....    STRH     r0,[lr,#0]
        0x00000fd2:    f04f0c2c    O.,.    MOV      r12,#0x2c
        0x00000fd6:    202b        +       MOVS     r0,#0x2b
        0x00000fd8:    f8ae1000    ....    STRH     r1,[lr,#0]
        0x00000fdc:    6025        %`      STR      r5,[r4,#0]
        0x00000fde:    8038        8.      STRH     r0,[r7,#0]
        0x00000fe0:    6026        &`      STR      r6,[r4,#0]
        0x00000fe2:    f8aea000    ....    STRH     r10,[lr,#0]
        0x00000fe6:    f8ae8000    ....    STRH     r8,[lr,#0]
        0x00000fea:    f8aea000    ....    STRH     r10,[lr,#0]
        0x00000fee:    f8ae8000    ....    STRH     r8,[lr,#0]
        0x00000ff2:    6025        %`      STR      r5,[r4,#0]
        0x00000ff4:    f8a7c000    ....    STRH     r12,[r7,#0]
        0x00000ff8:    6026        &`      STR      r6,[r4,#0]
        0x00000ffa:    9803        ..      LDR      r0,[sp,#0xc]
        0x00000ffc:    f8301019    0...    LDRH     r1,[r0,r9,LSL #1]
        0x00001000:    f8ae1000    ....    STRH     r1,[lr,#0]
        0x00001004:    e6a6        ..      B        0xd54 ; LCD_Picture + 76
        0x00001006:    b00b        ..      ADD      sp,sp,#0x2c
        0x00001008:    e8bd8ff0    ....    POP      {r4-r11,pc}
    LCD_SetWindow
        0x0000100c:    b5f0        ..      PUSH     {r4-r7,lr}
        0x0000100e:    f6441ccc    D...    MOV      r12,#0x49cc
        0x00001012:    f2c40c00    ....    MOVT     r12,#0x4000
        0x00001016:    f04f0e00    O...    MOV      lr,#0
        0x0000101a:    f04f44c0    O..D    MOV      r4,#0x60000000
        0x0000101e:    252a        *%      MOVS     r5,#0x2a
        0x00001020:    2700        .'      MOVS     r7,#0
        0x00001022:    f8cce000    ....    STR      lr,[r12,#0]
        0x00001026:    8025        %.      STRH     r5,[r4,#0]
        0x00001028:    2501        .%      MOVS     r5,#1
        0x0000102a:    0a06        ..      LSRS     r6,r0,#8
        0x0000102c:    f2c60703    ....    MOVT     r7,#0x6003
        0x00001030:    f8cc5000    ...P    STR      r5,[r12,#0]
        0x00001034:    803e        >.      STRH     r6,[r7,#0]
        0x00001036:    8038        8.      STRH     r0,[r7,#0]
        0x00001038:    0a08        ..      LSRS     r0,r1,#8
        0x0000103a:    8038        8.      STRH     r0,[r7,#0]
        0x0000103c:    202b        +       MOVS     r0,#0x2b
        0x0000103e:    8039        9.      STRH     r1,[r7,#0]
        0x00001040:    f8cce000    ....    STR      lr,[r12,#0]
        0x00001044:    8020         .      STRH     r0,[r4,#0]
        0x00001046:    0a10        ..      LSRS     r0,r2,#8
        0x00001048:    f8cc5000    ...P    STR      r5,[r12,#0]
        0x0000104c:    8038        8.      STRH     r0,[r7,#0]
        0x0000104e:    0a18        ..      LSRS     r0,r3,#8
        0x00001050:    803a        :.      STRH     r2,[r7,#0]
        0x00001052:    8038        8.      STRH     r0,[r7,#0]
        0x00001054:    202c        ,       MOVS     r0,#0x2c
        0x00001056:    803b        ;.      STRH     r3,[r7,#0]
        0x00001058:    f8cce000    ....    STR      lr,[r12,#0]
        0x0000105c:    8020         .      STRH     r0,[r4,#0]
        0x0000105e:    f8cc5000    ...P    STR      r5,[r12,#0]
        0x00001062:    bdf0        ..      POP      {r4-r7,pc}
    LCD_WR_DATA
        0x00001064:    2100        .!      MOVS     r1,#0
        0x00001066:    f2c60103    ....    MOVT     r1,#0x6003
        0x0000106a:    8008        ..      STRH     r0,[r1,#0]
        0x0000106c:    4770        pG      BX       lr
        0x0000106e:    0000        ..      MOVS     r0,r0
    ProcessHardFault
        0x00001070:    e92d43f0    -..C    PUSH     {r4-r9,lr}
        0x00001074:    b083        ..      SUB      sp,sp,#0xc
        0x00001076:    460e        .F      MOV      r6,r1
        0x00001078:    0740        @.      LSLS     r0,r0,#29
        0x0000107a:    bf48        H.      IT       MI
        0x0000107c:    4616        .F      MOVMI    r6,r2
        0x0000107e:    69b1        .i      LDR      r1,[r6,#0x18]
        0x00001080:    a03d        =.      ADR      r0,{pc}+0xf8 ; 0x1178
        0x00001082:    f000fb05    ....    BL       __0printf$8 ; 0x1690
        0x00001086:    f8d68018    ....    LDR      r8,[r6,#0x18]
        0x0000108a:    a040        @.      ADR      r0,{pc}+0x102 ; 0x118c
        0x0000108c:    f8b84000    ...@    LDRH     r4,[r8,#0]
        0x00001090:    f000fd50    ..P.    BL       puts ; 0x1b34
        0x00001094:    a042        B.      ADR      r0,{pc}+0x10c ; 0x11a0
        0x00001096:    4621        !F      MOV      r1,r4
        0x00001098:    f000fafa    ....    BL       __0printf$8 ; 0x1690
        0x0000109c:    f64b60ab    K..`    MOV      r0,#0xbeab
        0x000010a0:    4284        .B      CMP      r4,r0
        0x000010a2:    d106        ..      BNE      0x10b2 ; ProcessHardFault + 66
        0x000010a4:    f244103c    D.<.    MOV      r0,#0x413c
        0x000010a8:    f2c00000    ....    MOVT     r0,#0
        0x000010ac:    f000fd42    ..B.    BL       puts ; 0x1b34
        0x000010b0:    e054        T.      B        0x115c ; ProcessHardFault + 236
        0x000010b2:    0b20         .      LSRS     r0,r4,#12
        0x000010b4:    2805        .(      CMP      r0,#5
        0x000010b6:    d116        ..      BNE      0x10e6 ; ProcessHardFault + 118
        0x000010b8:    f3c41782    ....    UBFX     r7,r4,#6,#3
        0x000010bc:    f3c405c2    ....    UBFX     r5,r4,#3,#3
        0x000010c0:    f0040907    ....    AND      r9,r4,#7
        0x000010c4:    f2441019    D...    MOV      r0,#0x4119
        0x000010c8:    f2c00000    ....    MOVT     r0,#0
        0x000010cc:    4649        IF      MOV      r1,r9
        0x000010ce:    463a        :F      MOV      r2,r7
        0x000010d0:    462b        +F      MOV      r3,r5
        0x000010d2:    f000fadd    ....    BL       __0printf$8 ; 0x1690
        0x000010d6:    f8560025    V.%.    LDR      r0,[r6,r5,LSL #2]
        0x000010da:    f8561027    V.'.    LDR      r1,[r6,r7,LSL #2]
        0x000010de:    f8566029    V.)`    LDR      r6,[r6,r9,LSL #2]
        0x000010e2:    180f        ..      ADDS     r7,r1,r0
        0x000010e4:    e025        %.      B        0x1132 ; ProcessHardFault + 194
        0x000010e6:    f4044160    ..`A    AND      r1,r4,#0xe000
        0x000010ea:    f5b14fc0    ...O    CMP      r1,#0x6000
        0x000010ee:    d10a        ..      BNE      0x1106 ; ProcessHardFault + 150
        0x000010f0:    f24400fc    D...    MOV      r0,#0x40fc
        0x000010f4:    f3c41984    ....    UBFX     r9,r4,#6,#5
        0x000010f8:    f3c407c2    ....    UBFX     r7,r4,#3,#3
        0x000010fc:    f0040507    ....    AND      r5,r4,#7
        0x00001100:    f2c00000    ....    MOVT     r0,#0
        0x00001104:    e00a        ..      B        0x111c ; ProcessHardFault + 172
        0x00001106:    2809        .(      CMP      r0,#9
        0x00001108:    d029        ).      BEQ      0x115e ; ProcessHardFault + 238
        0x0000110a:    2808        .(      CMP      r0,#8
        0x0000110c:    d132        2.      BNE      0x1174 ; ProcessHardFault + 260
        0x0000110e:    f3c41984    ....    UBFX     r9,r4,#6,#5
        0x00001112:    f3c407c2    ....    UBFX     r7,r4,#3,#3
        0x00001116:    f0040507    ....    AND      r5,r4,#7
        0x0000111a:    a02e        ..      ADR      r0,{pc}+0xba ; 0x11d4
        0x0000111c:    4629        )F      MOV      r1,r5
        0x0000111e:    463a        :F      MOV      r2,r7
        0x00001120:    464b        KF      MOV      r3,r9
        0x00001122:    f000fab5    ....    BL       __0printf$8 ; 0x1690
        0x00001126:    f8560027    V.'.    LDR      r0,[r6,r7,LSL #2]
        0x0000112a:    eb000709    ....    ADD      r7,r0,r9
        0x0000112e:    f8566025    V.%`    LDR      r6,[r6,r5,LSL #2]
        0x00001132:    0520         .      LSLS     r0,r4,#20
        0x00001134:    f2441038    D.8.    MOV      r0,#0x4138
        0x00001138:    f2441334    D.4.    MOV      r3,#0x4134
        0x0000113c:    f2c00000    ....    MOVT     r0,#0
        0x00001140:    f2c00300    ....    MOVT     r3,#0
        0x00001144:    bf58        X.      IT       PL
        0x00001146:    4603        .F      MOVPL    r3,r0
        0x00001148:    f24400dc    D...    MOV      r0,#0x40dc
        0x0000114c:    f2c00000    ....    MOVT     r0,#0
        0x00001150:    4641        AF      MOV      r1,r8
        0x00001152:    4622        "F      MOV      r2,r4
        0x00001154:    e9cd6700    ...g    STRD     r6,r7,[sp,#0]
        0x00001158:    f000fa9a    ....    BL       __0printf$8 ; 0x1690
        0x0000115c:    e7fe        ..      B        0x115c ; ProcessHardFault + 236
        0x0000115e:    f3c42502    ...%    UBFX     r5,r4,#8,#3
        0x00001162:    b2e2        ..      UXTB     r2,r4
        0x00001164:    a014        ..      ADR      r0,{pc}+0x54 ; 0x11b8
        0x00001166:    4629        )F      MOV      r1,r5
        0x00001168:    f000fa92    ....    BL       __0printf$8 ; 0x1690
        0x0000116c:    69b0        .i      LDR      r0,[r6,#0x18]
        0x0000116e:    fa50f784    P...    UXTAB    r7,r0,r4
        0x00001172:    e7dc        ..      B        0x112e ; ProcessHardFault + 190
        0x00001174:    a01f        ..      ADR      r0,{pc}+0x80 ; 0x11f4
        0x00001176:    e799        ..      B        0x10ac ; ProcessHardFault + 60
    $d.4
        0x00001178:    64726148    Hard    DCD    1685217608
        0x0000117c:    6c756146    Faul    DCD    1819631942
        0x00001180:    20402074    t @     DCD    541073524
        0x00001184:    30257830    0x%0    DCD    807761968
        0x00001188:    000a7838    8x..    DCD    686136
        0x0000118c:    64726148    Hard    DCD    1685217608
        0x00001190:    6c756146    Faul    DCD    1819631942
        0x00001194:    6e412074    t An    DCD    1849761908
        0x00001198:    73796c61    alys    DCD    1937337441
        0x0000119c:    003a7369    is:.    DCD    3830633
        0x000011a0:    74736e49    Inst    DCD    1953721929
        0x000011a4:    74637572    ruct    DCD    1952675186
        0x000011a8:    206e6f69    ion     DCD    544108393
        0x000011ac:    65646f63    code    DCD    1701080931
        0x000011b0:    25203d20     = %    DCD    622869792
        0x000011b4:    00000a78    x...    DCD    2680
        0x000011b8:    4852444c    LDRH    DCD    1213350988
        0x000011bc:    5254532f    /STR    DCD    1381258031
        0x000011c0:    74722048    H rt    DCD    1953636424
        0x000011c4:    2078253d    =%x     DCD    544744765
        0x000011c8:    386d6d69    imm8    DCD    946695529
        0x000011cc:    0a78253d    =%x.    DCD    175646013
        0x000011d0:    00000000    ....    DCD    0
        0x000011d4:    4852444c    LDRH    DCD    1213350988
        0x000011d8:    5254532f    /STR    DCD    1381258031
        0x000011dc:    74722048    H rt    DCD    1953636424
        0x000011e0:    2078253d    =%x     DCD    544744765
        0x000011e4:    253d6e72    rn=%    DCD    624782962
        0x000011e8:    6d692078    x im    DCD    1835606136
        0x000011ec:    253d356d    m5=%    DCD    624768365
        0x000011f0:    00000a78    x...    DCD    2680
        0x000011f4:    78656e55    Unex    DCD    2019913301
        0x000011f8:    74636570    pect    DCD    1952671088
        0x000011fc:    69206465    ed i    DCD    1763730533
        0x00001200:    7274736e    nstr    DCD    1920234350
        0x00001204:    69746375    ucti    DCD    1769235317
        0x00001208:    00006e6f    on..    DCD    28271
    $t.0
    SystemCoreClockUpdate
        0x0000120c:    b580        ..      PUSH     {r7,lr}
        0x0000120e:    f7fff8b5    ....    BL       CLK_GetPLLClockFreq ; 0x37c
        0x00001212:    f2400104    @...    MOVW     r1,#4
        0x00001216:    f2c20100    ....    MOVT     r1,#0x2000
        0x0000121a:    6008        .`      STR      r0,[r1,#0]
        0x0000121c:    f2402010    @..     MOVW     r0,#0x210
        0x00001220:    f2c40000    ....    MOVT     r0,#0x4000
        0x00001224:    6802        .h      LDR      r2,[r0,#0]
        0x00001226:    f240030c    @...    MOVW     r3,#0xc
        0x0000122a:    f0020207    ....    AND      r2,r2,#7
        0x0000122e:    f2c20300    ....    MOVT     r3,#0x2000
        0x00001232:    2a02        .*      CMP      r2,#2
        0x00001234:    bf18        ..      IT       NE
        0x00001236:    eb030182    ....    ADDNE    r1,r3,r2,LSL #2
        0x0000123a:    6809        .h      LDR      r1,[r1,#0]
        0x0000123c:    6900        .i      LDR      r0,[r0,#0x10]
        0x0000123e:    f64d6283    M..b    MOV      r2,#0xde83
        0x00001242:    f000000f    ....    AND      r0,r0,#0xf
        0x00001246:    3001        .0      ADDS     r0,#1
        0x00001248:    fbb1f0f0    ....    UDIV     r0,r1,r0
        0x0000124c:    f2c4321b    ...2    MOVT     r2,#0x431b
        0x00001250:    f50021f4    ...!    ADD      r1,r0,#0x7a000
        0x00001254:    f5017190    ...q    ADD      r1,r1,#0x120
        0x00001258:    fba11202    ....    UMULL    r1,r2,r1,r2
        0x0000125c:    f2400108    @...    MOVW     r1,#8
        0x00001260:    f2c20100    ....    MOVT     r1,#0x2000
        0x00001264:    6008        .`      STR      r0,[r1,#0]
        0x00001266:    f2400100    @...    MOVW     r1,#0
        0x0000126a:    0c90        ..      LSRS     r0,r2,#18
        0x0000126c:    f2c20100    ....    MOVT     r1,#0x2000
        0x00001270:    6008        .`      STR      r0,[r1,#0]
        0x00001272:    bd80        ..      POP      {r7,pc}
    SystemInit
        0x00001274:    f64e5088    N..P    MOV      r0,#0xed88
        0x00001278:    f2ce0000    ....    MOVT     r0,#0xe000
        0x0000127c:    6801        .h      LDR      r1,[r0,#0]
        0x0000127e:    2208        ."      MOVS     r2,#8
        0x00001280:    f4410170    A.p.    ORR      r1,r1,#0xf00000
        0x00001284:    6001        .`      STR      r1,[r0,#0]
        0x00001286:    f24c004c    L.L.    MOV      r0,#0xc04c
        0x0000128a:    f2c40000    ....    MOVT     r0,#0x4000
        0x0000128e:    6801        .h      LDR      r1,[r0,#0]
        0x00001290:    f3620103    b...    BFI      r1,r2,#0,#4
        0x00001294:    6001        .`      STR      r1,[r0,#0]
        0x00001296:    f2402008    @..     MOVW     r0,#0x208
        0x0000129a:    f2c40000    ....    MOVT     r0,#0x4000
        0x0000129e:    f8d01090    ....    LDR      r1,[r0,#0x90]
        0x000012a2:    f4412180    A..!    ORR      r1,r1,#0x40000
        0x000012a6:    f8c01090    ....    STR      r1,[r0,#0x90]
        0x000012aa:    6801        .h      LDR      r1,[r0,#0]
        0x000012ac:    f0410102    A...    ORR      r1,r1,#2
        0x000012b0:    6001        .`      STR      r1,[r0,#0]
        0x000012b2:    f2411104    A...    MOV      r1,#0x1104
        0x000012b6:    f2c40104    ....    MOVT     r1,#0x4004
        0x000012ba:    680a        .h      LDR      r2,[r1,#0]
        0x000012bc:    f0223208    "..2    BIC      r2,r2,#0x8080808
        0x000012c0:    600a        .`      STR      r2,[r1,#0]
        0x000012c2:    684a        Jh      LDR      r2,[r1,#4]
        0x000012c4:    f0223208    "..2    BIC      r2,r2,#0x8080808
        0x000012c8:    604a        J`      STR      r2,[r1,#4]
        0x000012ca:    6801        .h      LDR      r1,[r0,#0]
        0x000012cc:    f0210102    !...    BIC      r1,r1,#2
        0x000012d0:    6001        .`      STR      r1,[r0,#0]
        0x000012d2:    f2441040    D.@.    MOV      r0,#0x4140
        0x000012d6:    f2c40000    ....    MOVT     r0,#0x4000
        0x000012da:    6801        .h      LDR      r1,[r0,#0]
        0x000012dc:    f02101f0    !...    BIC      r1,r1,#0xf0
        0x000012e0:    6001        .`      STR      r1,[r0,#0]
        0x000012e2:    4770        pG      BX       lr
    TMR1_IRQHandler
        0x000012e4:    f2401008    @...    MOVW     r0,#0x108
        0x000012e8:    f2c40005    ....    MOVT     r0,#0x4005
        0x000012ec:    2101        .!      MOVS     r1,#1
        0x000012ee:    6001        .`      STR      r1,[r0,#0]
        0x000012f0:    4770        pG      BX       lr
        0x000012f2:    0000        ..      MOVS     r0,r0
    TMR3_IRQHandler
        0x000012f4:    f2411008    A...    MOV      r0,#0x1108
        0x000012f8:    f2c40005    ....    MOVT     r0,#0x4005
        0x000012fc:    6801        .h      LDR      r1,[r0,#0]
        0x000012fe:    f0410101    A...    ORR      r1,r1,#1
        0x00001302:    6001        .`      STR      r1,[r0,#0]
        0x00001304:    f2400031    @.1.    MOVW     r0,#0x31
        0x00001308:    f2c20000    ....    MOVT     r0,#0x2000
        0x0000130c:    2101        .!      MOVS     r1,#1
        0x0000130e:    7001        .p      STRB     r1,[r0,#0]
        0x00001310:    f2400030    @.0.    MOVW     r0,#0x30
        0x00001314:    f2c20000    ....    MOVT     r0,#0x2000
        0x00001318:    7801        .x      LDRB     r1,[r0,#0]
        0x0000131a:    3101        .1      ADDS     r1,#1
        0x0000131c:    7001        .p      STRB     r1,[r0,#0]
        0x0000131e:    4770        pG      BX       lr
    fputc
        0x00001320:    2118        .!      MOVS     r1,#0x18
        0x00001322:    f2c40107    ....    MOVT     r1,#0x4007
        0x00001326:    680a        .h      LDR      r2,[r1,#0]
        0x00001328:    0212        ..      LSLS     r2,r2,#8
        0x0000132a:    d509        ..      BPL      0x1340 ; fputc + 32
        0x0000132c:    680a        .h      LDR      r2,[r1,#0]
        0x0000132e:    0212        ..      LSLS     r2,r2,#8
        0x00001330:    bf44        D.      ITT      MI
        0x00001332:    680a        .h      LDRMI    r2,[r1,#0]
        0x00001334:    ea5f2202    _.."    LSLSMI   r2,r2,#8
        0x00001338:    d502        ..      BPL      0x1340 ; fputc + 32
        0x0000133a:    680a        .h      LDR      r2,[r1,#0]
        0x0000133c:    0212        ..      LSLS     r2,r2,#8
        0x0000133e:    d4f2        ..      BMI      0x1326 ; fputc + 6
        0x00001340:    280a        .(      CMP      r0,#0xa
        0x00001342:    d10f        ..      BNE      0x1364 ; fputc + 68
        0x00001344:    220d        ."      MOVS     r2,#0xd
        0x00001346:    f8412c18    A..,    STR      r2,[r1,#-0x18]
        0x0000134a:    680a        .h      LDR      r2,[r1,#0]
        0x0000134c:    0212        ..      LSLS     r2,r2,#8
        0x0000134e:    d509        ..      BPL      0x1364 ; fputc + 68
        0x00001350:    680a        .h      LDR      r2,[r1,#0]
        0x00001352:    0212        ..      LSLS     r2,r2,#8
        0x00001354:    bf44        D.      ITT      MI
        0x00001356:    680a        .h      LDRMI    r2,[r1,#0]
        0x00001358:    ea5f2202    _.."    LSLSMI   r2,r2,#8
        0x0000135c:    d502        ..      BPL      0x1364 ; fputc + 68
        0x0000135e:    680a        .h      LDR      r2,[r1,#0]
        0x00001360:    0212        ..      LSLS     r2,r2,#8
        0x00001362:    d4f2        ..      BMI      0x134a ; fputc + 42
        0x00001364:    f8410c18    A...    STR      r0,[r1,#-0x18]
        0x00001368:    4770        pG      BX       lr
        0x0000136a:    0000        ..      MOVS     r0,r0
    main
        0x0000136c:    b082        ..      SUB      sp,sp,#8
        0x0000136e:    f2401400    @...    MOVW     r4,#0x100
        0x00001372:    f2c40400    ....    MOVT     r4,#0x4000
        0x00001376:    2059        Y       MOVS     r0,#0x59
        0x00001378:    2116        .!      MOVS     r1,#0x16
        0x0000137a:    2288        ."      MOVS     r2,#0x88
        0x0000137c:    6020         `      STR      r0,[r4,#0]
        0x0000137e:    6021        !`      STR      r1,[r4,#0]
        0x00001380:    6022        "`      STR      r2,[r4,#0]
        0x00001382:    6823        #h      LDR      r3,[r4,#0]
        0x00001384:    b97b        {.      CBNZ     r3,0x13a6 ; main + 58
        0x00001386:    6020         `      STR      r0,[r4,#0]
        0x00001388:    6021        !`      STR      r1,[r4,#0]
        0x0000138a:    6022        "`      STR      r2,[r4,#0]
        0x0000138c:    6823        #h      LDR      r3,[r4,#0]
        0x0000138e:    b953        S.      CBNZ     r3,0x13a6 ; main + 58
        0x00001390:    6020         `      STR      r0,[r4,#0]
        0x00001392:    6021        !`      STR      r1,[r4,#0]
        0x00001394:    6022        "`      STR      r2,[r4,#0]
        0x00001396:    6823        #h      LDR      r3,[r4,#0]
        0x00001398:    b92b        +.      CBNZ     r3,0x13a6 ; main + 58
        0x0000139a:    6020         `      STR      r0,[r4,#0]
        0x0000139c:    6021        !`      STR      r1,[r4,#0]
        0x0000139e:    6022        "`      STR      r2,[r4,#0]
        0x000013a0:    6823        #h      LDR      r3,[r4,#0]
        0x000013a2:    2b00        .+      CMP      r3,#0
        0x000013a4:    d0ea        ..      BEQ      0x137c ; main + 16
        0x000013a6:    f8d40100    ....    LDR      r0,[r4,#0x100]
        0x000013aa:    f0400001    @...    ORR      r0,r0,#1
        0x000013ae:    f8c40100    ....    STR      r0,[r4,#0x100]
        0x000013b2:    f8d40150    ..P.    LDR      r0,[r4,#0x150]
        0x000013b6:    07c0        ..      LSLS     r0,r0,#31
        0x000013b8:    d10c        ..      BNE      0x13d4 ; main + 104
        0x000013ba:    f8d40150    ..P.    LDR      r0,[r4,#0x150]
        0x000013be:    07c0        ..      LSLS     r0,r0,#31
        0x000013c0:    bf04        ..      ITT      EQ
        0x000013c2:    f8d40150    ..P.    LDREQ    r0,[r4,#0x150]
        0x000013c6:    ea5f70c0    _..p    LSLSEQ   r0,r0,#31
        0x000013ca:    d103        ..      BNE      0x13d4 ; main + 104
        0x000013cc:    f8d40150    ..P.    LDR      r0,[r4,#0x150]
        0x000013d0:    07c0        ..      LSLS     r0,r0,#31
        0x000013d2:    d0ee        ..      BEQ      0x13b2 ; main + 70
        0x000013d4:    f8d40110    ....    LDR      r0,[r4,#0x110]
        0x000013d8:    f0200007     ...    BIC      r0,r0,#7
        0x000013dc:    f8c40110    ....    STR      r0,[r4,#0x110]
        0x000013e0:    f8d40120    .. .    LDR      r0,[r4,#0x120]
        0x000013e4:    f020000f     ...    BIC      r0,r0,#0xf
        0x000013e8:    f8c40120    .. .    STR      r0,[r4,#0x120]
        0x000013ec:    f7ffff0e    ....    BL       SystemCoreClockUpdate ; 0x120c
        0x000013f0:    f8d40108    ....    LDR      r0,[r4,#0x108]
        0x000013f4:    2177        w!      MOVS     r1,#0x77
        0x000013f6:    f4403080    @..0    ORR      r0,r0,#0x10000
        0x000013fa:    f8c40108    ....    STR      r0,[r4,#0x108]
        0x000013fe:    f8d40114    ....    LDR      r0,[r4,#0x114]
        0x00001402:    2202        ."      MOVS     r2,#2
        0x00001404:    f02060e0     ..`    BIC      r0,r0,#0x7000000
        0x00001408:    f8c40114    ....    STR      r0,[r4,#0x114]
        0x0000140c:    f8d40120    .. .    LDR      r0,[r4,#0x120]
        0x00001410:    f4206070     .p`    BIC      r0,r0,#0xf00
        0x00001414:    f8c40120    .. .    STR      r0,[r4,#0x120]
        0x00001418:    f8540cc4    T...    LDR      r0,[r4,#-0xc4]
        0x0000141c:    f3614017    a..@    BFI      r0,r1,#16,#8
        0x00001420:    f8440cc4    D...    STR      r0,[r4,#-0xc4]
        0x00001424:    200c        .       MOVS     r0,#0xc
        0x00001426:    213d        =!      MOVS     r1,#0x3d
        0x00001428:    f2c40007    ....    MOVT     r0,#0x4007
        0x0000142c:    f2c30100    ....    MOVT     r1,#0x3000
        0x00001430:    6181        .a      STR      r1,[r0,#0x18]
        0x00001432:    2103        .!      MOVS     r1,#3
        0x00001434:    6001        .`      STR      r1,[r0,#0]
        0x00001436:    f8d40108    ....    LDR      r0,[r4,#0x108]
        0x0000143a:    f6447180    D..q    MOVW     r1,#0x4f80
        0x0000143e:    f0400008    @...    ORR      r0,r0,#8
        0x00001442:    f8c40108    ....    STR      r0,[r4,#0x108]
        0x00001446:    f8d40114    ....    LDR      r0,[r4,#0x114]
        0x0000144a:    f2c00112    ....    MOVT     r1,#0x12
        0x0000144e:    f42060e0     ..`    BIC      r0,r0,#0x700
        0x00001452:    f8c40114    ....    STR      r0,[r4,#0x114]
        0x00001456:    f2401000    @...    MOVW     r0,#0x100
        0x0000145a:    f2c40005    ....    MOVT     r0,#0x4005
        0x0000145e:    2400        .$      MOVS     r4,#0
        0x00001460:    6004        .`      STR      r4,[r0,#0]
        0x00001462:    6041        A`      STR      r1,[r0,#4]
        0x00001464:    2104        .!      MOVS     r1,#4
        0x00001466:    f2c20100    ....    MOVT     r1,#0x2000
        0x0000146a:    6001        .`      STR      r1,[r0,#0]
        0x0000146c:    f24e1100    N...    MOVW     r1,#0xe100
        0x00001470:    f2ce0100    ....    MOVT     r1,#0xe000
        0x00001474:    600a        .`      STR      r2,[r1,#0]
        0x00001476:    6801        .h      LDR      r1,[r0,#0]
        0x00001478:    f0414180    A..A    ORR      r1,r1,#0x40000000
        0x0000147c:    6001        .`      STR      r1,[r0,#0]
        0x0000147e:    f7feffb7    ....    BL       EBI_LCD_Init ; 0x3f0
        0x00001482:    f7fff8a1    ....    BL       ILI9341_Initial ; 0x5c8
        0x00001486:    2000        .       MOVS     r0,#0
        0x00001488:    2100        .!      MOVS     r1,#0
        0x0000148a:    22f0        ."      MOVS     r2,#0xf0
        0x0000148c:    f44f73a0    O..s    MOV      r3,#0x140
        0x00001490:    9400        ..      STR      r4,[sp,#0]
        0x00001492:    f7fffa11    ....    BL       LCD_BlankArea ; 0x8b8
        0x00001496:    271f        .'      MOVS     r7,#0x1f
        0x00001498:    200a        .       MOVS     r0,#0xa
        0x0000149a:    210a        .!      MOVS     r1,#0xa
        0x0000149c:    223c        <"      MOVS     r2,#0x3c
        0x0000149e:    2328        (#      MOVS     r3,#0x28
        0x000014a0:    9700        ..      STR      r7,[sp,#0]
        0x000014a2:    f7fffbd9    ....    BL       LCD_Draw_Rectangular ; 0xc58
        0x000014a6:    203c        <       MOVS     r0,#0x3c
        0x000014a8:    2164        d!      MOVS     r1,#0x64
        0x000014aa:    221e        ."      MOVS     r2,#0x1e
        0x000014ac:    f44f4378    O.xC    MOV      r3,#0xf800
        0x000014b0:    f7fffb46    ..F.    BL       LCD_Draw_Circle ; 0xb40
        0x000014b4:    2078        x       MOVS     r0,#0x78
        0x000014b6:    2178        x!      MOVS     r1,#0x78
        0x000014b8:    22e1        ."      MOVS     r2,#0xe1
        0x000014ba:    23e1        .#      MOVS     r3,#0xe1
        0x000014bc:    f04f0878    O.x.    MOV      r8,#0x78
        0x000014c0:    27e1        .'      MOVS     r7,#0xe1
        0x000014c2:    f7fffda3    ....    BL       LCD_SetWindow ; 0x100c
        0x000014c6:    f64f70ff    O..p    MOV      r0,#0xffff
        0x000014ca:    f7fffdcb    ....    BL       LCD_WR_DATA ; 0x1064
        0x000014ce:    f06f061e    o...    MVN      r6,#0x1e
        0x000014d2:    bf00        ..      NOP      
        0x000014d4:    4630        0F      MOV      r0,r6
        0x000014d6:    f1160f17    ....    CMN      r6,#0x17
        0x000014da:    bfc4        ..      ITT      GT
        0x000014dc:    382d        -8      SUBGT    r0,r0,#0x2d
        0x000014de:    f1080801    ....    ADDGT    r8,r8,#1
        0x000014e2:    2e08        ..      CMP      r6,#8
        0x000014e4:    bfb8        ..      IT       LT
        0x000014e6:    3701        .7      ADDLT    r7,#1
        0x000014e8:    b2bd        ..      UXTH     r5,r7
        0x000014ea:    bfb8        ..      IT       LT
        0x000014ec:    300e        .0      ADDLT    r0,r0,#0xe
        0x000014ee:    fa1ff488    ....    UXTH     r4,r8
        0x000014f2:    4606        .F      MOV      r6,r0
        0x000014f4:    4620         F      MOV      r0,r4
        0x000014f6:    4621        !F      MOV      r1,r4
        0x000014f8:    462a        *F      MOV      r2,r5
        0x000014fa:    462b        +F      MOV      r3,r5
        0x000014fc:    f7fffd86    ....    BL       LCD_SetWindow ; 0x100c
        0x00001500:    f64f70ff    O..p    MOV      r0,#0xffff
        0x00001504:    f7fffdae    ....    BL       LCD_WR_DATA ; 0x1064
        0x00001508:    f5b57f87    ....    CMP      r5,#0x10e
        0x0000150c:    d1e2        ..      BNE      0x14d4 ; main + 360
        0x0000150e:    2c86        .,      CMP      r4,#0x86
        0x00001510:    d1e0        ..      BNE      0x14d4 ; main + 360
        0x00001512:    208f        .       MOVS     r0,#0x8f
        0x00001514:    218f        .!      MOVS     r1,#0x8f
        0x00001516:    22f3        ."      MOVS     r2,#0xf3
        0x00001518:    23f3        .#      MOVS     r3,#0xf3
        0x0000151a:    f04f088f    O...    MOV      r8,#0x8f
        0x0000151e:    27f3        .'      MOVS     r7,#0xf3
        0x00001520:    f7fffd74    ..t.    BL       LCD_SetWindow ; 0x100c
        0x00001524:    f64f70ff    O..p    MOV      r0,#0xffff
        0x00001528:    f7fffd9c    ....    BL       LCD_WR_DATA ; 0x1064
        0x0000152c:    260a        .&      MOVS     r6,#0xa
        0x0000152e:    bf00        ..      NOP      
        0x00001530:    4630        0F      MOV      r0,r6
        0x00001532:    f1160f0e    ....    CMN      r6,#0xe
        0x00001536:    bfc4        ..      ITT      GT
        0x00001538:    381b        .8      SUBGT    r0,r0,#0x1b
        0x0000153a:    f1a80801    ....    SUBGT    r8,r8,#1
        0x0000153e:    2e13        ..      CMP      r6,#0x13
        0x00001540:    bfb8        ..      IT       LT
        0x00001542:    3701        .7      ADDLT    r7,#1
        0x00001544:    b2bd        ..      UXTH     r5,r7
        0x00001546:    bfb8        ..      IT       LT
        0x00001548:    3025        %0      ADDLT    r0,r0,#0x25
        0x0000154a:    fa1ff488    ....    UXTH     r4,r8
        0x0000154e:    4606        .F      MOV      r6,r0
        0x00001550:    4620         F      MOV      r0,r4
        0x00001552:    4621        !F      MOV      r1,r4
        0x00001554:    462a        *F      MOV      r2,r5
        0x00001556:    462b        +F      MOV      r3,r5
        0x00001558:    f7fffd58    ..X.    BL       LCD_SetWindow ; 0x100c
        0x0000155c:    f64f70ff    O..p    MOV      r0,#0xffff
        0x00001560:    f7fffd80    ....    BL       LCD_WR_DATA ; 0x1064
        0x00001564:    f5b57f87    ....    CMP      r5,#0x10e
        0x00001568:    d1e2        ..      BNE      0x1530 ; main + 452
        0x0000156a:    2c6a        j,      CMP      r4,#0x6a
        0x0000156c:    d1e0        ..      BNE      0x1530 ; main + 452
        0x0000156e:    2086        .       MOVS     r0,#0x86
        0x00001570:    2186        .!      MOVS     r1,#0x86
        0x00001572:    f44f7287    O..r    MOV      r2,#0x10e
        0x00001576:    f44f7387    O..s    MOV      r3,#0x10e
        0x0000157a:    f04f0886    O...    MOV      r8,#0x86
        0x0000157e:    f44f7787    O..w    MOV      r7,#0x10e
        0x00001582:    f7fffd43    ..C.    BL       LCD_SetWindow ; 0x100c
        0x00001586:    f64f70ff    O..p    MOV      r0,#0xffff
        0x0000158a:    f7fffd6b    ..k.    BL       LCD_WR_DATA ; 0x1064
        0x0000158e:    260a        .&      MOVS     r6,#0xa
        0x00001590:    4630        0F      MOV      r0,r6
        0x00001592:    f1160f0e    ....    CMN      r6,#0xe
        0x00001596:    bfc4        ..      ITT      GT
        0x00001598:    381b        .8      SUBGT    r0,r0,#0x1b
        0x0000159a:    f1a80801    ....    SUBGT    r8,r8,#1
        0x0000159e:    2e13        ..      CMP      r6,#0x13
        0x000015a0:    bfbc        ..      ITT      LT
        0x000015a2:    3f01        .?      SUBLT    r7,#1
        0x000015a4:    3025        %0      ADDLT    r0,r0,#0x25
        0x000015a6:    fa1ff488    ....    UXTH     r4,r8
        0x000015aa:    b2bd        ..      UXTH     r5,r7
        0x000015ac:    4606        .F      MOV      r6,r0
        0x000015ae:    4620         F      MOV      r0,r4
        0x000015b0:    4621        !F      MOV      r1,r4
        0x000015b2:    462a        *F      MOV      r2,r5
        0x000015b4:    462b        +F      MOV      r3,r5
        0x000015b6:    f7fffd29    ..).    BL       LCD_SetWindow ; 0x100c
        0x000015ba:    f64f70ff    O..p    MOV      r0,#0xffff
        0x000015be:    f7fffd51    ..Q.    BL       LCD_WR_DATA ; 0x1064
        0x000015c2:    2df3        .-      CMP      r5,#0xf3
        0x000015c4:    d1e4        ..      BNE      0x1590 ; main + 548
        0x000015c6:    2c61        a,      CMP      r4,#0x61
        0x000015c8:    d1e2        ..      BNE      0x1590 ; main + 548
        0x000015ca:    206a        j       MOVS     r0,#0x6a
        0x000015cc:    216a        j!      MOVS     r1,#0x6a
        0x000015ce:    f44f7287    O..r    MOV      r2,#0x10e
        0x000015d2:    f44f7387    O..s    MOV      r3,#0x10e
        0x000015d6:    f04f086a    O.j.    MOV      r8,#0x6a
        0x000015da:    f44f7787    O..w    MOV      r7,#0x10e
        0x000015de:    f7fffd15    ....    BL       LCD_SetWindow ; 0x100c
        0x000015e2:    f64f70ff    O..p    MOV      r0,#0xffff
        0x000015e6:    f7fffd3d    ..=.    BL       LCD_WR_DATA ; 0x1064
        0x000015ea:    f06f061e    o...    MVN      r6,#0x1e
        0x000015ee:    bf00        ..      NOP      
        0x000015f0:    4630        0F      MOV      r0,r6
        0x000015f2:    f1160f17    ....    CMN      r6,#0x17
        0x000015f6:    bfc4        ..      ITT      GT
        0x000015f8:    382d        -8      SUBGT    r0,r0,#0x2d
        0x000015fa:    f1080801    ....    ADDGT    r8,r8,#1
        0x000015fe:    2e08        ..      CMP      r6,#8
        0x00001600:    bfbc        ..      ITT      LT
        0x00001602:    3f01        .?      SUBLT    r7,#1
        0x00001604:    300e        .0      ADDLT    r0,r0,#0xe
        0x00001606:    fa1ff488    ....    UXTH     r4,r8
        0x0000160a:    b2bd        ..      UXTH     r5,r7
        0x0000160c:    4606        .F      MOV      r6,r0
        0x0000160e:    4620         F      MOV      r0,r4
        0x00001610:    4621        !F      MOV      r1,r4
        0x00001612:    462a        *F      MOV      r2,r5
        0x00001614:    462b        +F      MOV      r3,r5
        0x00001616:    f7fffcf9    ....    BL       LCD_SetWindow ; 0x100c
        0x0000161a:    f64f70ff    O..p    MOV      r0,#0xffff
        0x0000161e:    f7fffd21    ..!.    BL       LCD_WR_DATA ; 0x1064
        0x00001622:    2de1        .-      CMP      r5,#0xe1
        0x00001624:    d1e4        ..      BNE      0x15f0 ; main + 644
        0x00001626:    2c78        x,      CMP      r4,#0x78
        0x00001628:    d1e2        ..      BNE      0x15f0 ; main + 644
        0x0000162a:    2061        a       MOVS     r0,#0x61
        0x0000162c:    2161        a!      MOVS     r1,#0x61
        0x0000162e:    22f3        ."      MOVS     r2,#0xf3
        0x00001630:    23f3        .#      MOVS     r3,#0xf3
        0x00001632:    2561        a%      MOVS     r5,#0x61
        0x00001634:    f7fffcea    ....    BL       LCD_SetWindow ; 0x100c
        0x00001638:    f64f70ff    O..p    MOV      r0,#0xffff
        0x0000163c:    f7fffd12    ....    BL       LCD_WR_DATA ; 0x1064
        0x00001640:    3501        .5      ADDS     r5,#1
        0x00001642:    b2ac        ..      UXTH     r4,r5
        0x00001644:    4620         F      MOV      r0,r4
        0x00001646:    4621        !F      MOV      r1,r4
        0x00001648:    22f3        ."      MOVS     r2,#0xf3
        0x0000164a:    23f3        .#      MOVS     r3,#0xf3
        0x0000164c:    f7fffcde    ....    BL       LCD_SetWindow ; 0x100c
        0x00001650:    f64f70ff    O..p    MOV      r0,#0xffff
        0x00001654:    f7fffd06    ....    BL       LCD_WR_DATA ; 0x1064
        0x00001658:    2c8f        .,      CMP      r4,#0x8f
        0x0000165a:    d1f1        ..      BNE      0x1640 ; main + 724
        0x0000165c:    f641325c    A.\2    MOV      r2,#0x1b5c
        0x00001660:    2750        P'      MOVS     r7,#0x50
        0x00001662:    f2c00200    ....    MOVT     r2,#0
        0x00001666:    20a0        .       MOVS     r0,#0xa0
        0x00001668:    2150        P!      MOVS     r1,#0x50
        0x0000166a:    233c        <#      MOVS     r3,#0x3c
        0x0000166c:    9700        ..      STR      r7,[sp,#0]
        0x0000166e:    f7fffb4b    ..K.    BL       LCD_Picture ; 0xd08
        0x00001672:    a002        ..      ADR      r0,{pc}+0xa ; 0x167c
        0x00001674:    f000fa5e    ..^.    BL       puts ; 0x1b34
        0x00001678:    e7fe        ..      B        0x1678 ; main + 780
        0x0000167a:    bf00        ..      NOP      
    $d.13
        0x0000167c:    2044434c    LCD     DCD    541344588
        0x00001680:    74736574    test    DCD    1953719668
        0x00001684:    6d6f6320     com    DCD    1836016416
        0x00001688:    74656c70    plet    DCD    1952803952
        0x0000168c:    00000065    e...    DCD    101
    $t
    i.__0printf$8
    __0printf$8
    __1printf$8
    __2printf
        0x00001690:    b40f        ..      PUSH     {r0-r3}
        0x00001692:    4b05        .K      LDR      r3,[pc,#20] ; [0x16a8] = 0x1321
        0x00001694:    b510        ..      PUSH     {r4,lr}
        0x00001696:    a903        ..      ADD      r1,sp,#0xc
        0x00001698:    4a04        .J      LDR      r2,[pc,#16] ; [0x16ac] = 0x20000034
        0x0000169a:    9802        ..      LDR      r0,[sp,#8]
        0x0000169c:    f000f818    ....    BL       _printf_core ; 0x16d0
        0x000016a0:    bc10        ..      POP      {r4}
        0x000016a2:    f85dfb14    ]...    LDR      pc,[sp],#0x14
    $d
        0x000016a6:    0000        ..      DCW    0
        0x000016a8:    00001321    !...    DCD    4897
        0x000016ac:    20000034    4..     DCD    536870964
    $t
    i.__scatterload_copy
    __scatterload_copy
        0x000016b0:    e002        ..      B        0x16b8 ; __scatterload_copy + 8
        0x000016b2:    c808        ..      LDM      r0!,{r3}
        0x000016b4:    1f12        ..      SUBS     r2,r2,#4
        0x000016b6:    c108        ..      STM      r1!,{r3}
        0x000016b8:    2a00        .*      CMP      r2,#0
        0x000016ba:    d1fa        ..      BNE      0x16b2 ; __scatterload_copy + 2
        0x000016bc:    4770        pG      BX       lr
    i.__scatterload_null
    __scatterload_null
        0x000016be:    4770        pG      BX       lr
    i.__scatterload_zeroinit
    __scatterload_zeroinit
        0x000016c0:    2000        .       MOVS     r0,#0
        0x000016c2:    e001        ..      B        0x16c8 ; __scatterload_zeroinit + 8
        0x000016c4:    c101        ..      STM      r1!,{r0}
        0x000016c6:    1f12        ..      SUBS     r2,r2,#4
        0x000016c8:    2a00        .*      CMP      r2,#0
        0x000016ca:    d1fb        ..      BNE      0x16c4 ; __scatterload_zeroinit + 4
        0x000016cc:    4770        pG      BX       lr
        0x000016ce:    0000        ..      MOVS     r0,r0
    i._printf_core
    _printf_core
        0x000016d0:    e92d4fff    -..O    PUSH     {r0-r11,lr}
        0x000016d4:    b08d        ..      SUB      sp,sp,#0x34
        0x000016d6:    460f        .F      MOV      r7,r1
        0x000016d8:    4605        .F      MOV      r5,r0
        0x000016da:    2600        .&      MOVS     r6,#0
        0x000016dc:    e006        ..      B        0x16ec ; _printf_core + 28
        0x000016de:    2825        %(      CMP      r0,#0x25
        0x000016e0:    d00b        ..      BEQ      0x16fa ; _printf_core + 42
        0x000016e2:    e9dd120f    ....    LDRD     r1,r2,[sp,#0x3c]
        0x000016e6:    4790        .G      BLX      r2
        0x000016e8:    1c6d        m.      ADDS     r5,r5,#1
        0x000016ea:    1c76        v.      ADDS     r6,r6,#1
        0x000016ec:    7828        (x      LDRB     r0,[r5,#0]
        0x000016ee:    2800        .(      CMP      r0,#0
        0x000016f0:    d1f5        ..      BNE      0x16de ; _printf_core + 14
        0x000016f2:    b011        ..      ADD      sp,sp,#0x44
        0x000016f4:    4630        0F      MOV      r0,r6
        0x000016f6:    e8bd8ff0    ....    POP      {r4-r11,pc}
        0x000016fa:    2400        .$      MOVS     r4,#0
        0x000016fc:    46a2        .F      MOV      r10,r4
        0x000016fe:    46a1        .F      MOV      r9,r4
        0x00001700:    2201        ."      MOVS     r2,#1
        0x00001702:    49ec        .I      LDR      r1,[pc,#944] ; [0x1ab4] = 0x12809
        0x00001704:    e000        ..      B        0x1708 ; _printf_core + 56
        0x00001706:    4304        .C      ORRS     r4,r4,r0
        0x00001708:    f8153f01    ...?    LDRB     r3,[r5,#1]!
        0x0000170c:    3b20         ;      SUBS     r3,r3,#0x20
        0x0000170e:    fa02f003    ....    LSL      r0,r2,r3
        0x00001712:    4208        .B      TST      r0,r1
        0x00001714:    d1f7        ..      BNE      0x1706 ; _printf_core + 54
        0x00001716:    7828        (x      LDRB     r0,[r5,#0]
        0x00001718:    282a        *(      CMP      r0,#0x2a
        0x0000171a:    d010        ..      BEQ      0x173e ; _printf_core + 110
        0x0000171c:    f06f022f    o./.    MVN      r2,#0x2f
        0x00001720:    7828        (x      LDRB     r0,[r5,#0]
        0x00001722:    f1a00130    ..0.    SUB      r1,r0,#0x30
        0x00001726:    2909        .)      CMP      r1,#9
        0x00001728:    d814        ..      BHI      0x1754 ; _printf_core + 132
        0x0000172a:    eb0a018a    ....    ADD      r1,r10,r10,LSL #2
        0x0000172e:    eb020141    ..A.    ADD      r1,r2,r1,LSL #1
        0x00001732:    f0440402    D...    ORR      r4,r4,#2
        0x00001736:    eb000a01    ....    ADD      r10,r0,r1
        0x0000173a:    1c6d        m.      ADDS     r5,r5,#1
        0x0000173c:    e7f0        ..      B        0x1720 ; _printf_core + 80
        0x0000173e:    cf01        ..      LDM      r7!,{r0}
        0x00001740:    ea5f0a00    _...    MOVS     r10,r0
        0x00001744:    d503        ..      BPL      0x174e ; _printf_core + 126
        0x00001746:    f4445400    D..T    ORR      r4,r4,#0x2000
        0x0000174a:    f1ca0a00    ....    RSB      r10,r10,#0
        0x0000174e:    f0440402    D...    ORR      r4,r4,#2
        0x00001752:    1c6d        m.      ADDS     r5,r5,#1
        0x00001754:    7828        (x      LDRB     r0,[r5,#0]
        0x00001756:    282e        .(      CMP      r0,#0x2e
        0x00001758:    d117        ..      BNE      0x178a ; _printf_core + 186
        0x0000175a:    f8150f01    ....    LDRB     r0,[r5,#1]!
        0x0000175e:    f0440404    D...    ORR      r4,r4,#4
        0x00001762:    282a        *(      CMP      r0,#0x2a
        0x00001764:    d00e        ..      BEQ      0x1784 ; _printf_core + 180
        0x00001766:    f06f022f    o./.    MVN      r2,#0x2f
        0x0000176a:    7828        (x      LDRB     r0,[r5,#0]
        0x0000176c:    f1a00130    ..0.    SUB      r1,r0,#0x30
        0x00001770:    2909        .)      CMP      r1,#9
        0x00001772:    d80a        ..      BHI      0x178a ; _printf_core + 186
        0x00001774:    eb090189    ....    ADD      r1,r9,r9,LSL #2
        0x00001778:    eb020141    ..A.    ADD      r1,r2,r1,LSL #1
        0x0000177c:    eb000901    ....    ADD      r9,r0,r1
        0x00001780:    1c6d        m.      ADDS     r5,r5,#1
        0x00001782:    e7f2        ..      B        0x176a ; _printf_core + 154
        0x00001784:    f8579b04    W...    LDR      r9,[r7],#4
        0x00001788:    1c6d        m.      ADDS     r5,r5,#1
        0x0000178a:    7828        (x      LDRB     r0,[r5,#0]
        0x0000178c:    286c        l(      CMP      r0,#0x6c
        0x0000178e:    d00f        ..      BEQ      0x17b0 ; _printf_core + 224
        0x00001790:    dc06        ..      BGT      0x17a0 ; _printf_core + 208
        0x00001792:    284c        L(      CMP      r0,#0x4c
        0x00001794:    d017        ..      BEQ      0x17c6 ; _printf_core + 246
        0x00001796:    2868        h(      CMP      r0,#0x68
        0x00001798:    d00d        ..      BEQ      0x17b6 ; _printf_core + 230
        0x0000179a:    286a        j(      CMP      r0,#0x6a
        0x0000179c:    d114        ..      BNE      0x17c8 ; _printf_core + 248
        0x0000179e:    e004        ..      B        0x17aa ; _printf_core + 218
        0x000017a0:    2874        t(      CMP      r0,#0x74
        0x000017a2:    d010        ..      BEQ      0x17c6 ; _printf_core + 246
        0x000017a4:    287a        z(      CMP      r0,#0x7a
        0x000017a6:    d10f        ..      BNE      0x17c8 ; _printf_core + 248
        0x000017a8:    e00d        ..      B        0x17c6 ; _printf_core + 246
        0x000017aa:    f4441400    D...    ORR      r4,r4,#0x200000
        0x000017ae:    e00a        ..      B        0x17c6 ; _printf_core + 246
        0x000017b0:    f4441480    D...    ORR      r4,r4,#0x100000
        0x000017b4:    e001        ..      B        0x17ba ; _printf_core + 234
        0x000017b6:    f4441440    D.@.    ORR      r4,r4,#0x300000
        0x000017ba:    7869        ix      LDRB     r1,[r5,#1]
        0x000017bc:    4281        .B      CMP      r1,r0
        0x000017be:    d102        ..      BNE      0x17c6 ; _printf_core + 246
        0x000017c0:    f5041480    ....    ADD      r4,r4,#0x100000
        0x000017c4:    1c6d        m.      ADDS     r5,r5,#1
        0x000017c6:    1c6d        m.      ADDS     r5,r5,#1
        0x000017c8:    782a        *x      LDRB     r2,[r5,#0]
        0x000017ca:    2a6e        n*      CMP      r2,#0x6e
        0x000017cc:    d01f        ..      BEQ      0x180e ; _printf_core + 318
        0x000017ce:    dc0c        ..      BGT      0x17ea ; _printf_core + 282
        0x000017d0:    2a63        c*      CMP      r2,#0x63
        0x000017d2:    d031        1.      BEQ      0x1838 ; _printf_core + 360
        0x000017d4:    dc04        ..      BGT      0x17e0 ; _printf_core + 272
        0x000017d6:    2a00        .*      CMP      r2,#0
        0x000017d8:    d08b        ..      BEQ      0x16f2 ; _printf_core + 34
        0x000017da:    2a58        X*      CMP      r2,#0x58
        0x000017dc:    d111        ..      BNE      0x1802 ; _printf_core + 306
        0x000017de:    e0a3        ..      B        0x1928 ; _printf_core + 600
        0x000017e0:    2a64        d*      CMP      r2,#0x64
        0x000017e2:    d068        h.      BEQ      0x18b6 ; _printf_core + 486
        0x000017e4:    2a69        i*      CMP      r2,#0x69
        0x000017e6:    d10c        ..      BNE      0x1802 ; _printf_core + 306
        0x000017e8:    e065        e.      B        0x18b6 ; _printf_core + 486
        0x000017ea:    2a73        s*      CMP      r2,#0x73
        0x000017ec:    d02e        ..      BEQ      0x184c ; _printf_core + 380
        0x000017ee:    dc04        ..      BGT      0x17fa ; _printf_core + 298
        0x000017f0:    2a6f        o*      CMP      r2,#0x6f
        0x000017f2:    d073        s.      BEQ      0x18dc ; _printf_core + 524
        0x000017f4:    2a70        p*      CMP      r2,#0x70
        0x000017f6:    d104        ..      BNE      0x1802 ; _printf_core + 306
        0x000017f8:    e09b        ..      B        0x1932 ; _printf_core + 610
        0x000017fa:    2a75        u*      CMP      r2,#0x75
        0x000017fc:    d06f        o.      BEQ      0x18de ; _printf_core + 526
        0x000017fe:    2a78        x*      CMP      r2,#0x78
        0x00001800:    d06e        n.      BEQ      0x18e0 ; _printf_core + 528
        0x00001802:    4610        .F      MOV      r0,r2
        0x00001804:    e9dd120f    ....    LDRD     r1,r2,[sp,#0x3c]
        0x00001808:    4790        .G      BLX      r2
        0x0000180a:    1c76        v.      ADDS     r6,r6,#1
        0x0000180c:    e150        P.      B        0x1ab0 ; _printf_core + 992
        0x0000180e:    f3c45002    ...P    UBFX     r0,r4,#20,#3
        0x00001812:    2802        .(      CMP      r0,#2
        0x00001814:    d006        ..      BEQ      0x1824 ; _printf_core + 340
        0x00001816:    2803        .(      CMP      r0,#3
        0x00001818:    d009        ..      BEQ      0x182e ; _printf_core + 350
        0x0000181a:    2804        .(      CMP      r0,#4
        0x0000181c:    cf01        ..      LDM      r7!,{r0}
        0x0000181e:    d009        ..      BEQ      0x1834 ; _printf_core + 356
        0x00001820:    6006        .`      STR      r6,[r0,#0]
        0x00001822:    e145        E.      B        0x1ab0 ; _printf_core + 992
        0x00001824:    cf01        ..      LDM      r7!,{r0}
        0x00001826:    17f1        ..      ASRS     r1,r6,#31
        0x00001828:    e9c06100    ...a    STRD     r6,r1,[r0,#0]
        0x0000182c:    e140        @.      B        0x1ab0 ; _printf_core + 992
        0x0000182e:    cf01        ..      LDM      r7!,{r0}
        0x00001830:    8006        ..      STRH     r6,[r0,#0]
        0x00001832:    e13d        =.      B        0x1ab0 ; _printf_core + 992
        0x00001834:    7006        .p      STRB     r6,[r0,#0]
        0x00001836:    e13b        ;.      B        0x1ab0 ; _printf_core + 992
        0x00001838:    f8170b04    ....    LDRB     r0,[r7],#4
        0x0000183c:    f88d0000    ....    STRB     r0,[sp,#0]
        0x00001840:    2000        .       MOVS     r0,#0
        0x00001842:    f88d0001    ....    STRB     r0,[sp,#1]
        0x00001846:    46eb        .F      MOV      r11,sp
        0x00001848:    2001        .       MOVS     r0,#1
        0x0000184a:    e003        ..      B        0x1854 ; _printf_core + 388
        0x0000184c:    f857bb04    W...    LDR      r11,[r7],#4
        0x00001850:    f04f30ff    O..0    MOV      r0,#0xffffffff
        0x00001854:    0761        a.      LSLS     r1,r4,#29
        0x00001856:    f04f0100    O...    MOV      r1,#0
        0x0000185a:    d402        ..      BMI      0x1862 ; _printf_core + 402
        0x0000185c:    e00d        ..      B        0x187a ; _printf_core + 426
        0x0000185e:    f1080101    ....    ADD      r1,r8,#1
        0x00001862:    4688        .F      MOV      r8,r1
        0x00001864:    4549        IE      CMP      r1,r9
        0x00001866:    da0f        ..      BGE      0x1888 ; _printf_core + 440
        0x00001868:    4580        .E      CMP      r8,r0
        0x0000186a:    dbf8        ..      BLT      0x185e ; _printf_core + 398
        0x0000186c:    f81b1008    ....    LDRB     r1,[r11,r8]
        0x00001870:    2900        .)      CMP      r1,#0
        0x00001872:    d1f4        ..      BNE      0x185e ; _printf_core + 398
        0x00001874:    e008        ..      B        0x1888 ; _printf_core + 440
        0x00001876:    f1080101    ....    ADD      r1,r8,#1
        0x0000187a:    4688        .F      MOV      r8,r1
        0x0000187c:    4281        .B      CMP      r1,r0
        0x0000187e:    dbfa        ..      BLT      0x1876 ; _printf_core + 422
        0x00001880:    f81b1008    ....    LDRB     r1,[r11,r8]
        0x00001884:    2900        .)      CMP      r1,#0
        0x00001886:    d1f6        ..      BNE      0x1876 ; _printf_core + 422
        0x00001888:    e9dd230f    ...#    LDRD     r2,r3,[sp,#0x3c]
        0x0000188c:    ebaa0008    ....    SUB      r0,r10,r8
        0x00001890:    4681        .F      MOV      r9,r0
        0x00001892:    4621        !F      MOV      r1,r4
        0x00001894:    f000f936    ..6.    BL       _printf_pre_padding ; 0x1b04
        0x00001898:    4430        0D      ADD      r0,r0,r6
        0x0000189a:    eb000608    ....    ADD      r6,r0,r8
        0x0000189e:    e004        ..      B        0x18aa ; _printf_core + 474
        0x000018a0:    e9dd120f    ....    LDRD     r1,r2,[sp,#0x3c]
        0x000018a4:    f81b0b01    ....    LDRB     r0,[r11],#1
        0x000018a8:    4790        .G      BLX      r2
        0x000018aa:    f1b80801    ....    SUBS     r8,r8,#1
        0x000018ae:    d2f7        ..      BCS      0x18a0 ; _printf_core + 464
        0x000018b0:    4621        !F      MOV      r1,r4
        0x000018b2:    4648        HF      MOV      r0,r9
        0x000018b4:    e0f7        ..      B        0x1aa6 ; _printf_core + 982
        0x000018b6:    210a        .!      MOVS     r1,#0xa
        0x000018b8:    f3c45302    ...S    UBFX     r3,r4,#20,#3
        0x000018bc:    f04f0b00    O...    MOV      r11,#0
        0x000018c0:    9108        ..      STR      r1,[sp,#0x20]
        0x000018c2:    2b02        .+      CMP      r3,#2
        0x000018c4:    d004        ..      BEQ      0x18d0 ; _printf_core + 512
        0x000018c6:    cf01        ..      LDM      r7!,{r0}
        0x000018c8:    17c1        ..      ASRS     r1,r0,#31
        0x000018ca:    2b03        .+      CMP      r3,#3
        0x000018cc:    d009        ..      BEQ      0x18e2 ; _printf_core + 530
        0x000018ce:    e00a        ..      B        0x18e6 ; _printf_core + 534
        0x000018d0:    1dff        ..      ADDS     r7,r7,#7
        0x000018d2:    f0270707    '...    BIC      r7,r7,#7
        0x000018d6:    e8f70102    ....    LDRD     r0,r1,[r7],#8
        0x000018da:    e008        ..      B        0x18ee ; _printf_core + 542
        0x000018dc:    e032        2.      B        0x1944 ; _printf_core + 628
        0x000018de:    e01f        ..      B        0x1920 ; _printf_core + 592
        0x000018e0:    e020         .      B        0x1924 ; _printf_core + 596
        0x000018e2:    b200        ..      SXTH     r0,r0
        0x000018e4:    17c1        ..      ASRS     r1,r0,#31
        0x000018e6:    2b04        .+      CMP      r3,#4
        0x000018e8:    d101        ..      BNE      0x18ee ; _printf_core + 542
        0x000018ea:    b240        @.      SXTB     r0,r0
        0x000018ec:    17c1        ..      ASRS     r1,r0,#31
        0x000018ee:    1e03        ..      SUBS     r3,r0,#0
        0x000018f0:    f1710300    q...    SBCS     r3,r1,#0
        0x000018f4:    da07        ..      BGE      0x1906 ; _printf_core + 566
        0x000018f6:    f04f0c00    O...    MOV      r12,#0
        0x000018fa:    ebd0000c    ....    RSBS     r0,r0,r12
        0x000018fe:    eb6c0101    l...    SBC      r1,r12,r1
        0x00001902:    232d        -#      MOVS     r3,#0x2d
        0x00001904:    e002        ..      B        0x190c ; _printf_core + 572
        0x00001906:    0523        #.      LSLS     r3,r4,#20
        0x00001908:    d504        ..      BPL      0x1914 ; _printf_core + 580
        0x0000190a:    232b        +#      MOVS     r3,#0x2b
        0x0000190c:    f88d3024    ..$0    STRB     r3,[sp,#0x24]
        0x00001910:    2301        .#      MOVS     r3,#1
        0x00001912:    e003        ..      B        0x191c ; _printf_core + 588
        0x00001914:    07e3        ..      LSLS     r3,r4,#31
        0x00001916:    d001        ..      BEQ      0x191c ; _printf_core + 588
        0x00001918:    2320         #      MOVS     r3,#0x20
        0x0000191a:    e7f7        ..      B        0x190c ; _printf_core + 572
        0x0000191c:    4698        .F      MOV      r8,r3
        0x0000191e:    e058        X.      B        0x19d2 ; _printf_core + 770
        0x00001920:    210a        .!      MOVS     r1,#0xa
        0x00001922:    e010        ..      B        0x1946 ; _printf_core + 630
        0x00001924:    2110        .!      MOVS     r1,#0x10
        0x00001926:    e00e        ..      B        0x1946 ; _printf_core + 630
        0x00001928:    2010        .       MOVS     r0,#0x10
        0x0000192a:    f04f0b00    O...    MOV      r11,#0
        0x0000192e:    9008        ..      STR      r0,[sp,#0x20]
        0x00001930:    e00c        ..      B        0x194c ; _printf_core + 636
        0x00001932:    2110        .!      MOVS     r1,#0x10
        0x00001934:    f04f0b00    O...    MOV      r11,#0
        0x00001938:    f0440404    D...    ORR      r4,r4,#4
        0x0000193c:    f04f0908    O...    MOV      r9,#8
        0x00001940:    9108        ..      STR      r1,[sp,#0x20]
        0x00001942:    e003        ..      B        0x194c ; _printf_core + 636
        0x00001944:    2108        .!      MOVS     r1,#8
        0x00001946:    f04f0b00    O...    MOV      r11,#0
        0x0000194a:    9108        ..      STR      r1,[sp,#0x20]
        0x0000194c:    f3c45302    ...S    UBFX     r3,r4,#20,#3
        0x00001950:    2b02        .+      CMP      r3,#2
        0x00001952:    d004        ..      BEQ      0x195e ; _printf_core + 654
        0x00001954:    cf01        ..      LDM      r7!,{r0}
        0x00001956:    2100        .!      MOVS     r1,#0
        0x00001958:    2b03        .+      CMP      r3,#3
        0x0000195a:    d006        ..      BEQ      0x196a ; _printf_core + 666
        0x0000195c:    e006        ..      B        0x196c ; _printf_core + 668
        0x0000195e:    1dff        ..      ADDS     r7,r7,#7
        0x00001960:    f0270707    '...    BIC      r7,r7,#7
        0x00001964:    e8f70102    ....    LDRD     r0,r1,[r7],#8
        0x00001968:    e003        ..      B        0x1972 ; _printf_core + 674
        0x0000196a:    b280        ..      UXTH     r0,r0
        0x0000196c:    2b04        .+      CMP      r3,#4
        0x0000196e:    d100        ..      BNE      0x1972 ; _printf_core + 674
        0x00001970:    b2c0        ..      UXTB     r0,r0
        0x00001972:    f04f0800    O...    MOV      r8,#0
        0x00001976:    0723        #.      LSLS     r3,r4,#28
        0x00001978:    d52b        +.      BPL      0x19d2 ; _printf_core + 770
        0x0000197a:    2a70        p*      CMP      r2,#0x70
        0x0000197c:    d007        ..      BEQ      0x198e ; _printf_core + 702
        0x0000197e:    f8ddc020    .. .    LDR      r12,[sp,#0x20]
        0x00001982:    f08c0c10    ....    EOR      r12,r12,#0x10
        0x00001986:    ea5c0c0b    \...    ORRS     r12,r12,r11
        0x0000198a:    d005        ..      BEQ      0x1998 ; _printf_core + 712
        0x0000198c:    e00e        ..      B        0x19ac ; _printf_core + 732
        0x0000198e:    2340        @#      MOVS     r3,#0x40
        0x00001990:    f88d3024    ..$0    STRB     r3,[sp,#0x24]
        0x00001994:    2301        .#      MOVS     r3,#1
        0x00001996:    e008        ..      B        0x19aa ; _printf_core + 730
        0x00001998:    ea500301    P...    ORRS     r3,r0,r1
        0x0000199c:    d006        ..      BEQ      0x19ac ; _printf_core + 732
        0x0000199e:    2330        0#      MOVS     r3,#0x30
        0x000019a0:    f88d3024    ..$0    STRB     r3,[sp,#0x24]
        0x000019a4:    f88d2025    ..%     STRB     r2,[sp,#0x25]
        0x000019a8:    2302        .#      MOVS     r3,#2
        0x000019aa:    4698        .F      MOV      r8,r3
        0x000019ac:    f8ddc020    .. .    LDR      r12,[sp,#0x20]
        0x000019b0:    f08c0c08    ....    EOR      r12,r12,#8
        0x000019b4:    ea5c0c0b    \...    ORRS     r12,r12,r11
        0x000019b8:    d10b        ..      BNE      0x19d2 ; _printf_core + 770
        0x000019ba:    ea500301    P...    ORRS     r3,r0,r1
        0x000019be:    d101        ..      BNE      0x19c4 ; _printf_core + 756
        0x000019c0:    0763        c.      LSLS     r3,r4,#29
        0x000019c2:    d506        ..      BPL      0x19d2 ; _printf_core + 770
        0x000019c4:    2330        0#      MOVS     r3,#0x30
        0x000019c6:    f88d3024    ..$0    STRB     r3,[sp,#0x24]
        0x000019ca:    f04f0801    O...    MOV      r8,#1
        0x000019ce:    f1a90901    ....    SUB      r9,r9,#1
        0x000019d2:    2a58        X*      CMP      r2,#0x58
        0x000019d4:    d004        ..      BEQ      0x19e0 ; _printf_core + 784
        0x000019d6:    a238        8.      ADR      r2,{pc}+0xe2 ; 0x1ab8
        0x000019d8:    920b        ..      STR      r2,[sp,#0x2c]
        0x000019da:    aa08        ..      ADD      r2,sp,#0x20
        0x000019dc:    920a        ..      STR      r2,[sp,#0x28]
        0x000019de:    e00b        ..      B        0x19f8 ; _printf_core + 808
        0x000019e0:    a23a        :.      ADR      r2,{pc}+0xec ; 0x1acc
        0x000019e2:    e7f9        ..      B        0x19d8 ; _printf_core + 776
        0x000019e4:    465b        [F      MOV      r3,r11
        0x000019e6:    9a08        ..      LDR      r2,[sp,#0x20]
        0x000019e8:    f7fefc4c    ..L.    BL       __aeabi_uldivmod ; 0x284
        0x000019ec:    9b0b        ..      LDR      r3,[sp,#0x2c]
        0x000019ee:    5c9b        .\      LDRB     r3,[r3,r2]
        0x000019f0:    9a0a        ..      LDR      r2,[sp,#0x28]
        0x000019f2:    1e52        R.      SUBS     r2,r2,#1
        0x000019f4:    920a        ..      STR      r2,[sp,#0x28]
        0x000019f6:    7013        .p      STRB     r3,[r2,#0]
        0x000019f8:    ea500201    P...    ORRS     r2,r0,r1
        0x000019fc:    d1f2        ..      BNE      0x19e4 ; _printf_core + 788
        0x000019fe:    980a        ..      LDR      r0,[sp,#0x28]
        0x00001a00:    ebad0000    ....    SUB      r0,sp,r0
        0x00001a04:    f1000b20    .. .    ADD      r11,r0,#0x20
        0x00001a08:    0760        `.      LSLS     r0,r4,#29
        0x00001a0a:    d502        ..      BPL      0x1a12 ; _printf_core + 834
        0x00001a0c:    f4243480    $..4    BIC      r4,r4,#0x10000
        0x00001a10:    e001        ..      B        0x1a16 ; _printf_core + 838
        0x00001a12:    f04f0901    O...    MOV      r9,#1
        0x00001a16:    45d9        .E      CMP      r9,r11
        0x00001a18:    dd02        ..      BLE      0x1a20 ; _printf_core + 848
        0x00001a1a:    eba9000b    ....    SUB      r0,r9,r11
        0x00001a1e:    e000        ..      B        0x1a22 ; _printf_core + 850
        0x00001a20:    2000        .       MOVS     r0,#0
        0x00001a22:    eb00010b    ....    ADD      r1,r0,r11
        0x00001a26:    4441        AD      ADD      r1,r1,r8
        0x00001a28:    9008        ..      STR      r0,[sp,#0x20]
        0x00001a2a:    ebaa0a01    ....    SUB      r10,r10,r1
        0x00001a2e:    03e0        ..      LSLS     r0,r4,#15
        0x00001a30:    d406        ..      BMI      0x1a40 ; _printf_core + 880
        0x00001a32:    e9dd230f    ...#    LDRD     r2,r3,[sp,#0x3c]
        0x00001a36:    4621        !F      MOV      r1,r4
        0x00001a38:    4650        PF      MOV      r0,r10
        0x00001a3a:    f000f863    ..c.    BL       _printf_pre_padding ; 0x1b04
        0x00001a3e:    4406        .D      ADD      r6,r6,r0
        0x00001a40:    f04f0900    O...    MOV      r9,#0
        0x00001a44:    e008        ..      B        0x1a58 ; _printf_core + 904
        0x00001a46:    a909        ..      ADD      r1,sp,#0x24
        0x00001a48:    f8110009    ....    LDRB     r0,[r1,r9]
        0x00001a4c:    e9dd120f    ....    LDRD     r1,r2,[sp,#0x3c]
        0x00001a50:    4790        .G      BLX      r2
        0x00001a52:    f1090901    ....    ADD      r9,r9,#1
        0x00001a56:    1c76        v.      ADDS     r6,r6,#1
        0x00001a58:    45c1        .E      CMP      r9,r8
        0x00001a5a:    dbf4        ..      BLT      0x1a46 ; _printf_core + 886
        0x00001a5c:    03e0        ..      LSLS     r0,r4,#15
        0x00001a5e:    d50c        ..      BPL      0x1a7a ; _printf_core + 938
        0x00001a60:    e9dd230f    ...#    LDRD     r2,r3,[sp,#0x3c]
        0x00001a64:    4621        !F      MOV      r1,r4
        0x00001a66:    4650        PF      MOV      r0,r10
        0x00001a68:    f000f84c    ..L.    BL       _printf_pre_padding ; 0x1b04
        0x00001a6c:    4406        .D      ADD      r6,r6,r0
        0x00001a6e:    e004        ..      B        0x1a7a ; _printf_core + 938
        0x00001a70:    e9dd120f    ....    LDRD     r1,r2,[sp,#0x3c]
        0x00001a74:    2030        0       MOVS     r0,#0x30
        0x00001a76:    4790        .G      BLX      r2
        0x00001a78:    1c76        v.      ADDS     r6,r6,#1
        0x00001a7a:    9908        ..      LDR      r1,[sp,#0x20]
        0x00001a7c:    1e48        H.      SUBS     r0,r1,#1
        0x00001a7e:    9008        ..      STR      r0,[sp,#0x20]
        0x00001a80:    2900        .)      CMP      r1,#0
        0x00001a82:    dcf5        ..      BGT      0x1a70 ; _printf_core + 928
        0x00001a84:    e008        ..      B        0x1a98 ; _printf_core + 968
        0x00001a86:    980a        ..      LDR      r0,[sp,#0x28]
        0x00001a88:    990a        ..      LDR      r1,[sp,#0x28]
        0x00001a8a:    7800        .x      LDRB     r0,[r0,#0]
        0x00001a8c:    1c49        I.      ADDS     r1,r1,#1
        0x00001a8e:    910a        ..      STR      r1,[sp,#0x28]
        0x00001a90:    e9dd120f    ....    LDRD     r1,r2,[sp,#0x3c]
        0x00001a94:    4790        .G      BLX      r2
        0x00001a96:    1c76        v.      ADDS     r6,r6,#1
        0x00001a98:    f1bb0100    ....    SUBS     r1,r11,#0
        0x00001a9c:    f1ab0b01    ....    SUB      r11,r11,#1
        0x00001aa0:    dcf1        ..      BGT      0x1a86 ; _printf_core + 950
        0x00001aa2:    4621        !F      MOV      r1,r4
        0x00001aa4:    4650        PF      MOV      r0,r10
        0x00001aa6:    e9dd230f    ...#    LDRD     r2,r3,[sp,#0x3c]
        0x00001aaa:    f000f819    ....    BL       _printf_post_padding ; 0x1ae0
        0x00001aae:    4406        .D      ADD      r6,r6,r0
        0x00001ab0:    1c6d        m.      ADDS     r5,r5,#1
        0x00001ab2:    e61b        ..      B        0x16ec ; _printf_core + 28
    $d
        0x00001ab4:    00012809    .(..    DCD    75785
        0x00001ab8:    33323130    0123    DCD    858927408
        0x00001abc:    37363534    4567    DCD    926299444
        0x00001ac0:    62613938    89ab    DCD    1650538808
        0x00001ac4:    66656463    cdef    DCD    1717920867
        0x00001ac8:    00000000    ....    DCD    0
        0x00001acc:    33323130    0123    DCD    858927408
        0x00001ad0:    37363534    4567    DCD    926299444
        0x00001ad4:    42413938    89AB    DCD    1111570744
        0x00001ad8:    46454443    CDEF    DCD    1178944579
        0x00001adc:    00000000    ....    DCD    0
    $t
    i._printf_post_padding
    _printf_post_padding
        0x00001ae0:    e92d41f0    -..A    PUSH     {r4-r8,lr}
        0x00001ae4:    4604        .F      MOV      r4,r0
        0x00001ae6:    2500        .%      MOVS     r5,#0
        0x00001ae8:    461e        .F      MOV      r6,r3
        0x00001aea:    4617        .F      MOV      r7,r2
        0x00001aec:    0488        ..      LSLS     r0,r1,#18
        0x00001aee:    d404        ..      BMI      0x1afa ; _printf_post_padding + 26
        0x00001af0:    e005        ..      B        0x1afe ; _printf_post_padding + 30
        0x00001af2:    4639        9F      MOV      r1,r7
        0x00001af4:    2020                MOVS     r0,#0x20
        0x00001af6:    47b0        .G      BLX      r6
        0x00001af8:    1c6d        m.      ADDS     r5,r5,#1
        0x00001afa:    1e64        d.      SUBS     r4,r4,#1
        0x00001afc:    d5f9        ..      BPL      0x1af2 ; _printf_post_padding + 18
        0x00001afe:    4628        (F      MOV      r0,r5
        0x00001b00:    e8bd81f0    ....    POP      {r4-r8,pc}
    i._printf_pre_padding
    _printf_pre_padding
        0x00001b04:    e92d41f0    -..A    PUSH     {r4-r8,lr}
        0x00001b08:    4604        .F      MOV      r4,r0
        0x00001b0a:    2500        .%      MOVS     r5,#0
        0x00001b0c:    461e        .F      MOV      r6,r3
        0x00001b0e:    4690        .F      MOV      r8,r2
        0x00001b10:    03c8        ..      LSLS     r0,r1,#15
        0x00001b12:    d501        ..      BPL      0x1b18 ; _printf_pre_padding + 20
        0x00001b14:    2730        0'      MOVS     r7,#0x30
        0x00001b16:    e000        ..      B        0x1b1a ; _printf_pre_padding + 22
        0x00001b18:    2720         '      MOVS     r7,#0x20
        0x00001b1a:    0488        ..      LSLS     r0,r1,#18
        0x00001b1c:    d504        ..      BPL      0x1b28 ; _printf_pre_padding + 36
        0x00001b1e:    e005        ..      B        0x1b2c ; _printf_pre_padding + 40
        0x00001b20:    4641        AF      MOV      r1,r8
        0x00001b22:    4638        8F      MOV      r0,r7
        0x00001b24:    47b0        .G      BLX      r6
        0x00001b26:    1c6d        m.      ADDS     r5,r5,#1
        0x00001b28:    1e64        d.      SUBS     r4,r4,#1
        0x00001b2a:    d5f9        ..      BPL      0x1b20 ; _printf_pre_padding + 28
        0x00001b2c:    4628        (F      MOV      r0,r5
        0x00001b2e:    e8bd81f0    ....    POP      {r4-r8,pc}
        0x00001b32:    0000        ..      MOVS     r0,r0
    i.puts
    puts
        0x00001b34:    b510        ..      PUSH     {r4,lr}
        0x00001b36:    4604        .F      MOV      r4,r0
        0x00001b38:    e001        ..      B        0x1b3e ; puts + 10
        0x00001b3a:    f7fffbf1    ....    BL       fputc ; 0x1320
        0x00001b3e:    f8140b01    ....    LDRB     r0,[r4],#1
        0x00001b42:    4904        .I      LDR      r1,[pc,#16] ; [0x1b54] = 0x20000034
        0x00001b44:    2800        .(      CMP      r0,#0
        0x00001b46:    d1f8        ..      BNE      0x1b3a ; puts + 6
        0x00001b48:    e8bd4010    ...@    POP      {r4,lr}
        0x00001b4c:    200a        .       MOVS     r0,#0xa
        0x00001b4e:    f7ffbbe7    ....    B        fputc ; 0x1320
    $d
        0x00001b52:    0000        ..      DCW    0
        0x00001b54:    20000034    4..     DCD    536870964
    $d.realdata
    .L__const.CLK_GetPLLClockFreq.au8NoTbl
        0x00001b58:    04020201    ....    DCD    67240449
    sample_image
        0x00001b5c:    850384e4    ....    DCD    2231600356
        0x00001b60:    4aa08543    C..J    DCD    1252033859
        0x00001b64:    022001a0    .. .    DCD    35652000
        0x00001b68:    44e23401    .4.D    DCD    1155675137
        0x00001b6c:    3c2244a3    .D"<    DCD    1008878755
        0x00001b70:    8ca742a1    .B..    DCD    2359771809
        0x00001b74:    846994eb    ..i.    DCD    2221511915
        0x00001b78:    5b246bc6    .k$[    DCD    1529113542
        0x00001b7c:    b62773e5    .s'.    DCD    3056038885
        0x00001b80:    d689cee7    ....    DCD    3599355623
        0x00001b84:    8be7a509    ....    DCD    2347214089
        0x00001b88:    63259c49    I.%c    DCD    1663409225
        0x00001b8c:    74e78529    )..t    DCD    1961329961
        0x00001b90:    53e35362    bS.S    DCD    1407406946
        0x00001b94:    5b4463e4    .cD[    DCD    1531208676
        0x00001b98:    3a223a21    !:":    DCD    975321633
        0x00001b9c:    396031c1    .1`9    DCD    962605505
        0x00001ba0:    3a2139e1    .9!:    DCD    975256033
        0x00001ba4:    6c066385    .c.l    DCD    1812358021
        0x00001ba8:    53246bc5    .k$S    DCD    1394895813
        0x00001bac:    53a553c5    .S.S    DCD    1403343813
        0x00001bb0:    52624a83    .JbR    DCD    1382173315
        0x00001bb4:    52a35ae4    .Z.R    DCD    1386437348
        0x00001bb8:    8dcb6c68    hl..    DCD    2378919016
        0x00001bbc:    31405364    dS@1    DCD    826299236
        0x00001bc0:    318041a0    .A.1    DCD    830488992
        0x00001bc4:    3a213a20     :!:    DCD    975256096
        0x00001bc8:    42414221    !BAB    DCD    1111573025
        0x00001bcc:    53405302    .S@S    DCD    1396724482
        0x00001bd0:    53014aa0    .J.S    DCD    1392593568
        0x00001bd4:    53e07462    bt.S    DCD    1407218786
        0x00001bd8:    4a605c20     \`J    DCD    1247829024
        0x00001bdc:    238009e0    ...#    DCD    595593696
        0x00001be0:    4ce23ca2    .<.L    DCD    1289895074
        0x00001be4:    3c224cc3    .L"<    DCD    1008880835
        0x00001be8:    8ca74ac1    .J..    DCD    2359773889
        0x00001bec:    74088ca9    ...t    DCD    1946717353
        0x00001bf0:    5ae36b86    .k.Z    DCD    1524853638
        0x00001bf4:    be668ca5    ..f.    DCD    3194391717
        0x00001bf8:    ce4acec7    ..J.    DCD    3461009095
        0x00001bfc:    84089cca    ....    DCD    2215156938
        0x00001c00:    7bc79c69    i..{    DCD    2076679273
        0x00001c04:    74a68509    ...t    DCD    1957070089
        0x00001c08:    4b2142c1    .B!K    DCD    1260470977
        0x00001c0c:    6be563c4    .c.k    DCD    1810195396
        0x00001c10:    4a4252e3    .RBJ    DCD    1245860579
        0x00001c14:    39403160    `1@9    DCD    960508256
        0x00001c18:    42624a83    .JbB    DCD    1113737859
        0x00001c1c:    6bc652c4    .R.k    DCD    1808159428
        0x00001c20:    42626384    .cbB    DCD    1113744260
        0x00001c24:    53854b84    .K.S    DCD    1401244548
        0x00001c28:    62c35b04    .[.b    DCD    1656969988
        0x00001c2c:    62e36324    $c.b    DCD    1659069220
        0x00001c30:    7d296ba6    .k)}    DCD    2099866534
        0x00001c34:    31605343    CS`1    DCD    828396355
        0x00001c38:    318041a1    .A.1    DCD    830488993
        0x00001c3c:    53034280    .B.S    DCD    1392722560
        0x00001c40:    632152c2    .R!c    DCD    1663128258
        0x00001c44:    4b005b41    A[.K    DCD    1258314561
        0x00001c48:    4a614260    `BaJ    DCD    1247887968
        0x00001c4c:    3b0074a2    .t.;    DCD    989885602
        0x00001c50:    528032c0    .2.R    DCD    1384133312
        0x00001c54:    3ca13340    @3.<    DCD    1017197376
        0x00001c58:    550344c2    .D.U    DCD    1426277570
        0x00001c5c:    3c424ce3    .LB<    DCD    1010978019
        0x00001c60:    84676321    !cg.    DCD    2221368097
        0x00001c64:    63667c27    '|fc    DCD    1667660839
        0x00001c68:    6b646b45    Ekdk    DCD    1801743173
        0x00001c6c:    be86a566    f...    DCD    3196495206
        0x00001c70:    b5a9c667    g...    DCD    3047802471
        0x00001c74:    7be78c69    i..{    DCD    2078772329
        0x00001c78:    7be79c49    I..{    DCD    2078776393
        0x00001c7c:    6c4584c7    ..El    DCD    1816495303
        0x00001c80:    32003a00    .:.2    DCD    838875648
        0x00001c84:    73c65b23    #[.s    DCD    1942379299
        0x00001c88:    5ac36365    ec.Z    DCD    1522754405
        0x00001c8c:    39403160    `1@9    DCD    960508256
        0x00001c90:    4ac34ac3    .J.J    DCD    1254312643
        0x00001c94:    5b444a83    .JD[    DCD    1531202179
        0x00001c98:    4aa35b64    d[.J    DCD    1252219748
        0x00001c9c:    63a54ae4    .J.c    DCD    1671776996
        0x00001ca0:    62e46365    ec.b    DCD    1659134821
        0x00001ca4:    6b036304    .c.k    DCD    1795384068
        0x00001ca8:    6c6662e3    .bfl    DCD    1818649315
        0x00001cac:    31a05343    CS.1    DCD    832590659
        0x00001cb0:    41e04a01    .J.A    DCD    1105218049
        0x00001cb4:    74045b42    B[.t    DCD    1946442562
        0x00001cb8:    638073e2    .s.c    DCD    1669362658
        0x00001cbc:    3aa05300    .S.:    DCD    983585536
        0x00001cc0:    52824ac1    .J.R    DCD    1384270529
        0x00001cc4:    32c06c41    Al.2    DCD    851471425
        0x00001cc8:    52a03260    `2.R    DCD    1386230368
        0x00001ccc:    44e24be0    .K.D    DCD    1155681248
        0x00001cd0:    552344e3    .D#U    DCD    1428374755
        0x00001cd4:    3c415504    .UA<    DCD    1010914564
        0x00001cd8:    846773a3    .sg.    DCD    2221372323
        0x00001cdc:    52c47407    .t.R    DCD    1388606471
        0x00001ce0:    73e55ae4    .Z.s    DCD    1944410852
        0x00001ce4:    a5c69d66    f...    DCD    2781257062
        0x00001ce8:    6c858525    %..l    DCD    1820689701
        0x00001cec:    63c56424    $d.c    DCD    1673880612
        0x00001cf0:    7be78408    ...{    DCD    2078770184
        0x00001cf4:    74257485    .t%t    DCD    1948611717
        0x00001cf8:    29803a00    .:.)    DCD    696269312
        0x00001cfc:    6b654a41    AJek    DCD    1801800257
        0x00001d00:    6b2473c6    .s$k    DCD    1797551046
        0x00001d04:    39c04a01    .J.9    DCD    968903169
        0x00001d08:    4ae35304    .S.J    DCD    1256411908
        0x00001d0c:    42e24282    .B.B    DCD    1122124418
        0x00001d10:    53045b44    D[.S    DCD    1392794436
        0x00001d14:    63a55324    $S.c    DCD    1671779108
        0x00001d18:    5b246bc5    .k$[    DCD    1529113541
        0x00001d1c:    6b245ae3    .Z$k    DCD    1797544675
        0x00001d20:    5ba46282    .b.[    DCD    1537499778
        0x00001d24:    3a015363    cS.:    DCD    973165411
        0x00001d28:    5ae14a42    BJ.Z    DCD    1524714050
        0x00001d2c:    84a37c23    #|..    DCD    2225306659
        0x00001d30:    5b607421    !t`[    DCD    1533047841
        0x00001d34:    3aa03a80    .:.:    DCD    983579264
        0x00001d38:    5ac35363    cS.Z    DCD    1522750307
        0x00001d3c:    2a803b20     ;.*    DCD    713046816
        0x00001d40:    5ac14280    .B.Z    DCD    1522614912
        0x00001d44:    4ce25380    .S.L    DCD    1289900928
        0x00001d48:    55444ce3    .LDU    DCD    1430539491
        0x00001d4c:    44415524    $UAD    DCD    1145132324
        0x00001d50:    84688403    ..h.    DCD    2221442051
        0x00001d54:    52a37c07    .|.R    DCD    1386445831
        0x00001d58:    63c34a83    .J.c    DCD    1673742979
        0x00001d5c:    54637484    .tcT    DCD    1415804036
        0x00001d60:    34013401    .4.4    DCD    872494081
        0x00001d64:    44413c40    @<AD    DCD    1145125952
        0x00001d68:    73e66be5    .k.s    DCD    1944480741
        0x00001d6c:    73e57445    Et.s    DCD    1944417349
        0x00001d70:    41e04a41    AJ.A    DCD    1105218113
        0x00001d74:    63254a01    .J%c    DCD    1663388161
        0x00001d78:    83c773c7    .s..    DCD    2210886599
        0x00001d7c:    4aa26b04    .k.J    DCD    1252158212
        0x00001d80:    43035b64    d[.C    DCD    1124293476
        0x00001d84:    3ae03ac0    .:.:    DCD    987773632
        0x00001d88:    63655b44    D[ec    DCD    1667586884
        0x00001d8c:    73e66365    ec.s    DCD    1944478565
        0x00001d90:    5ba36c45    El.[    DCD    1537436741
        0x00001d94:    63845b63    c[.c    DCD    1669618531
        0x00001d98:    53435a82    .ZCS    DCD    1396923010
        0x00001d9c:    52e25ba4    .[.R    DCD    1390566308
        0x00001da0:    84436b62    bkC.    DCD    2219010914
        0x00001da4:    8cc384a2    ....    DCD    2361623714
        0x00001da8:    4b207c43    C| K    DCD    1260420163
        0x00001dac:    3aa14280    .B.:    DCD    983646848
        0x00001db0:    5b0553a4    .S.[    DCD    1527075748
        0x00001db4:    2a602aa0    .*`*    DCD    710945440
        0x00001db8:    52814a81    .J.R    DCD    1384204929
        0x00001dbc:    4c825301    .S.L    DCD    1283609345
        0x00001dc0:    5d445523    #UD]    DCD    1564759331
        0x00001dc4:    54635d44    D]cT    DCD    1415798084
        0x00001dc8:    7c078c45    E..|    DCD    2080869445
        0x00001dcc:    6ba47be7    .{.k    DCD    1805941735
        0x00001dd0:    43a242c1    .B.C    DCD    1134707393
        0x00001dd4:    34013be2    .;.4    DCD    872496098
        0x00001dd8:    342033e1    .3 4    DCD    874525665
        0x00001ddc:    3c803c60    `<.<    DCD    1015037024
        0x00001de0:    6c044441    AD.l    DCD    1812218945
        0x00001de4:    73c67426    &t.s    DCD    1942385702
        0x00001de8:    49c15aa3    .Z.I    DCD    1237408419
        0x00001dec:    5b044a21    !J.[    DCD    1527007777
        0x00001df0:    8c087407    .t..    DCD    2349364231
        0x00001df4:    5b637b85    .{c[    DCD    1533246341
        0x00001df8:    4b225ba4    .["K    DCD    1260542884
        0x00001dfc:    43804320     C.C    DCD    1132479264
        0x00001e00:    6b655b63    c[ek    DCD    1801804643
        0x00001e04:    7c076b65    ek.|    DCD    2080861029
        0x00001e08:    5c047426    &t.\    DCD    1543795750
        0x00001e0c:    63c45c04    .\.c    DCD    1673812996
        0x00001e10:    532452a2    .R$S    DCD    1394889378
        0x00001e14:    7c437425    %tC|    DCD    2084795429
        0x00001e18:    8cc28482    ....    DCD    2361558146
        0x00001e1c:    7c447c40    @|D|    DCD    2084863040
        0x00001e20:    5ba28487    ...[    DCD    1537377415
        0x00001e24:    42814ac1    .J.B    DCD    1115769537
        0x00001e28:    63255383    .S%c    DCD    1663390595
        0x00001e2c:    22202a80    .* "    DCD    572533376
        0x00001e30:    5ae44220     B.Z    DCD    1524908576
        0x00001e34:    64046324    $c.d    DCD    1678009124
        0x00001e38:    5d655544    DUe]    DCD    1566922052
        0x00001e3c:    6ca55d44    D].l    DCD    1822776644
        0x00001e40:    73869465    e..s    DCD    1938199653
        0x00001e44:    74247be6    .{$t    DCD    1948548070
        0x00001e48:    33c13b81    .;.3    DCD    868301697
        0x00001e4c:    34013401    .4.4    DCD    872494081
        0x00001e50:    34403401    .4@4    DCD    876622849
        0x00001e54:    44a03c80    .<.D    DCD    1151351936
        0x00001e58:    5c834480    .D.\    DCD    1552106624
        0x00001e5c:    7be77c46    F|.{    DCD    2078768198
        0x00001e60:    41a15ae4    .Z.A    DCD    1101093604
        0x00001e64:    42c24201    .B.B    DCD    1120027137
        0x00001e68:    8be77427    't..    DCD    2347201575
        0x00001e6c:    5ba36b64    dk.[    DCD    1537436516
        0x00001e70:    532263c3    .c"S    DCD    1394762691
        0x00001e74:    4c014380    .C.L    DCD    1275151232
        0x00001e78:    63445b83    .[Dc    DCD    1665424259
        0x00001e7c:    7c076b85    .k.|    DCD    2080861061
        0x00001e80:    63c47c07    .|.c    DCD    1673821191
        0x00001e84:    5bc35bc3    .[.[    DCD    1539529667
        0x00001e88:    7c046343    Cc.|    DCD    2080662339
        0x00001e8c:    8ce28cc4    ....    DCD    2363657412
        0x00001e90:    7c408cc1    ..@|    DCD    2084605121
        0x00001e94:    73e55b40    @[.s    DCD    1944410944
        0x00001e98:    7c458ca9    ..E|    DCD    2084932777
        0x00001e9c:    422152e1    .R!B    DCD    1109480161
        0x00001ea0:    5b244b02    .K$[    DCD    1529105154
        0x00001ea4:    21c02a80    .*.!    DCD    566241920
        0x00001ea8:    636531e0    .1ec    DCD    1667576288
        0x00001eac:    73e66b65    ek.s    DCD    1944480613
        0x00001eb0:    5d655d25    %]e]    DCD    1566924069
        0x00001eb4:    7cc76565    ee.|    DCD    2093442405
        0x00001eb8:    73249445    E.$s    DCD    1931777093
        0x00001ebc:    5c4373a4    .sC\    DCD    1547924388
        0x00001ec0:    340133c1    .3.4    DCD    872494017
        0x00001ec4:    3c413c21    !<A<    DCD    1010908193
        0x00001ec8:    3c803c60    `<.<    DCD    1015037024
        0x00001ecc:    44c144c0    .D.D    DCD    1153516736
        0x00001ed0:    4cc244c1    .D.L    DCD    1287800001
        0x00001ed4:    84077c86    .|..    DCD    2215083142
        0x00001ed8:    39806325    %c.9    DCD    964715301
        0x00001edc:    42c239a1    .9.B    DCD    1120024993
        0x00001ee0:    8ba67407    .t..    DCD    2342941703
        0x00001ee4:    5b8152c2    .R.[    DCD    1535201986
        0x00001ee8:    634363c2    .cCc    DCD    1665360834
        0x00001eec:    54414b80    .KAT    DCD    1413565312
        0x00001ef0:    63846c04    .l.c    DCD    1669622788
        0x00001ef4:    846763a4    .cg.    DCD    2221368228
        0x00001ef8:    63657c07    .|ec    DCD    1667595271
        0x00001efc:    74046384    .c.t    DCD    1946444676
        0x00001f00:    94e38483    ....    DCD    2497938563
        0x00001f04:    8ce19502    ....    DCD    2363593986
        0x00001f08:    5b617c40    @|a[    DCD    1533115456
        0x00001f0c:    63444ac1    .JDc    DCD    1665419969
        0x00001f10:    84478c48    H.G.    DCD    2219281480
        0x00001f14:    42005b02    .[.B    DCD    1107319554
        0x00001f18:    5b044aa2    .J.[    DCD    1527007906
        0x00001f1c:    19802240    @"..    DCD    427827776
        0x00001f20:    5b443200    .2D[    DCD    1531195904
        0x00001f24:    73e66b85    .k.s    DCD    1944480645
        0x00001f28:    65656ce6    .lee    DCD    1701145830
        0x00001f2c:    84866da6    .m..    DCD    2223402406
        0x00001f30:    73238c25    %.#s    DCD    1931709477
        0x00001f34:    3be15b42    B[.;    DCD    1004624706
        0x00001f38:    3c0133e1    .3.<    DCD    1006711777
        0x00001f3c:    44613c41    A<aD    DCD    1147223105
        0x00001f40:    44c044a0    .D.D    DCD    1153451168
        0x00001f44:    4d0344e0    .D.M    DCD    1292059872
        0x00001f48:    4cc24ce2    .L.L    DCD    1287802082
        0x00001f4c:    84287486    .t(.    DCD    2217243782
        0x00001f50:    31e16345    Ec.1    DCD    836854597
        0x00001f54:    53813a01    .:.S    DCD    1400977921
        0x00001f58:    8ba77c27    '|..    DCD    2343009319
        0x00001f5c:    5be152e1    .R.[    DCD    1541493473
        0x00001f60:    73a463e2    .c.s    DCD    1940153314
        0x00001f64:    5c8163c3    .c.\    DCD    1551983555
        0x00001f68:    63e46c44    Dl.c    DCD    1675914308
        0x00001f6c:    7c865c03    .\.|    DCD    2089180163
        0x00001f70:    7bc57c47    G|.{    DCD    2076539975
        0x00001f74:    94e38443    C...    DCD    2497938499
        0x00001f78:    95229502    ..".    DCD    2502071554
        0x00001f7c:    74208ce0    .. t    DCD    1948290272
        0x00001f80:    42815b61    a[.B    DCD    1115773793
        0x00001f84:    5b4342e3    .BC[    DCD    1531134691
        0x00001f88:    73c67bc6    .{.s    DCD    1942387654
        0x00001f8c:    39e052c2    .R.9    DCD    971002562
        0x00001f90:    5b244241    AB$[    DCD    1529102913
        0x00001f94:    118011e1    ....    DCD    293605857
        0x00001f98:    5b0431e0    .1.[    DCD    1527001568
        0x00001f9c:    73e76b85    .k.s    DCD    1944546181
        0x00001fa0:    756684a9    ..fu    DCD    1969652905
        0x00001fa4:    8c247d47    G}$.    DCD    2351201607
        0x00001fa8:    6b848426    &..k    DCD    1803846694
        0x00001fac:    3be24ba2    .K.;    DCD    1004686242
        0x00001fb0:    3c023be2    .;.<    DCD    1006779362
        0x00001fb4:    3c613422    "4a<    DCD    1013003298
        0x00001fb8:    44c03ca1    .<.D    DCD    1153449121
        0x00001fbc:    552344e1    .D#U    DCD    1428374753
        0x00001fc0:    55035503    .U.U    DCD    1426281731
        0x00001fc4:    84276ca5    .l'.    DCD    2217176229
        0x00001fc8:    3a616365    eca:    DCD    979460965
        0x00001fcc:    64424b01    .KBd    DCD    1682066177
        0x00001fd0:    8be78487    ....    DCD    2347205767
        0x00001fd4:    74c46c24    $l.t    DCD    1959029796
        0x00001fd8:    73a463e1    .c.s    DCD    1940153313
        0x00001fdc:    5c416ba4    .kA\    DCD    1547791268
        0x00001fe0:    5c446484    .dD\    DCD    1547986052
        0x00001fe4:    7ca55c03    .\.|    DCD    2091211779
        0x00001fe8:    94c48cc5    ....    DCD    2495909061
        0x00001fec:    950194e2    ....    DCD    2499908834
        0x00001ff0:    8cc09521    !...    DCD    2361431329
        0x00001ff4:    63a17c40    @|.c    DCD    1671527488
        0x00001ff8:    3a224ac2    .J":    DCD    975325890
        0x00001ffc:    5bc442e3    .B.[    DCD    1539588835
        0x00002000:    5b246344    Dc$[    DCD    1529111364
        0x00002004:    39e04a61    aJ.9    DCD    971000417
        0x00002008:    5b6441e0    .Ad[    DCD    1533297120
        0x0000200c:    22431202    ..C"    DCD    574820866
        0x00002010:    5ac33a01    .:.Z    DCD    1522743809
        0x00002014:    84086b24    $k..    DCD    2215144228
        0x00002018:    8ce89cab    ....    DCD    2364054699
        0x0000201c:    94049487    ....    DCD    2483328135
        0x00002020:    5ba47c07    .|.[    DCD    1537506311
        0x00002024:    3be23bc2    .;.;    DCD    1004682178
        0x00002028:    44224402    .D"D    DCD    1143096322
        0x0000202c:    3c414442    BDA<    DCD    1010910274
        0x00002030:    44c13ca1    .<.D    DCD    1153514657
        0x00002034:    4d0244e1    .D.M    DCD    1291994337
        0x00002038:    5d445503    .UD]    DCD    1564759299
        0x0000203c:    84477507    .uG.    DCD    2219275527
        0x00002040:    53036ba4    .k.S    DCD    1392733092
        0x00002044:    74836383    .c.t    DCD    1954767747
        0x00002048:    83e684a7    ....    DCD    2212922535
        0x0000204c:    85878507    ....    DCD    2240251143
        0x00002050:    73846421    !d.s    DCD    1938056225
        0x00002054:    5be16323    #c.[    DCD    1541497635
        0x00002058:    64245c64    d\$d    DCD    1680104548
        0x0000205c:    8ce47443    Ct..    DCD    2363782211
        0x00002060:    95229543    C.".    DCD    2502071619
        0x00002064:    95019501    ....    DCD    2499908865
        0x00002068:    7c4184c0    ..A|    DCD    2084668608
        0x0000206c:    53426b81    .kBS    DCD    1396861825
        0x00002070:    42014ae3    .J.B    DCD    1107380963
        0x00002074:    4b834282    .B.K    DCD    1266893442
        0x00002078:    52c35b44    D[.R    DCD    1388534596
        0x0000207c:    39e04262    bB.9    DCD    970998370
        0x00002080:    5b854201    .B.[    DCD    1535459841
        0x00002084:    3b842ae3    .*.;    DCD    998517475
        0x00002088:    5aa34261    aB.Z    DCD    1520648801
        0x0000208c:    94087324    $s..    DCD    2483581732
        0x00002090:    94499c6a    j.I.    DCD    2487852138
        0x00002094:    9404ac07    ....    DCD    2483334151
        0x00002098:    43c263a4    .c.C    DCD    1136812964
        0x0000209c:    748443e3    .C.t    DCD    1954825187
        0x000020a0:    7ce48525    %..|    DCD    2095351077
        0x000020a4:    546274a5    .tbT    DCD    1415738533
        0x000020a8:    44c144a1    .D.D    DCD    1153516705
        0x000020ac:    4ce24cc2    .L.L    DCD    1289899202
        0x000020b0:    65454d03    .MEe    DCD    1699040515
        0x000020b4:    8c677d49    I}g.    DCD    2355592521
        0x000020b8:    6b846bc5    .k.k    DCD    1803840453
        0x000020bc:    6be36ba4    .k.k    DCD    1810066340
        0x000020c0:    6b647c26    &|dk    DCD    1801747494
        0x000020c4:    8da784e7    ....    DCD    2376565991
        0x000020c8:    5b216421    !d![    DCD    1528914977
        0x000020cc:    5ba35aa2    .Z.[    DCD    1537432226
        0x000020d0:    84a46c64    dl..    DCD    2225368164
        0x000020d4:    95218ce3    ..!.    DCD    2502003939
        0x000020d8:    95019501    ....    DCD    2499908865
        0x000020dc:    84c09501    ....    DCD    2227213569
        0x000020e0:    6b827c81    .|.k    DCD    1803713665
        0x000020e4:    5b6462e3    .bd[    DCD    1533305571
        0x000020e8:    42214b43    CK!B    DCD    1109478211
        0x000020ec:    4ae34242    BB.J    DCD    1256407618
        0x000020f0:    53044ae3    .J.S    DCD    1392790243
        0x000020f4:    42424282    .BBB    DCD    1111638658
        0x000020f8:    53044242    BB.S    DCD    1392788034
        0x000020fc:    4c0543e4    .C.L    DCD    1275413476
        0x00002100:    52825b04    .[.R    DCD    1384274692
        0x00002104:    94087304    .s..    DCD    2483581700
        0x00002108:    8be88be8    ....    DCD    2347273192
        0x0000210c:    7ba29ba6    ...{    DCD    2074254246
        0x00002110:    53435363    cSCS    DCD    1396921187
        0x00002114:    9d676c25    %lg.    DCD    2640800805
        0x00002118:    9526a5e6    ..&.    DCD    2502338022
        0x0000211c:    73e594a7    ...s    DCD    1944425639
        0x00002120:    64847446    Ft.d    DCD    1686402118
        0x00002124:    4ca354a2    .T.L    DCD    1285772450
        0x00002128:    654654e4    .TFe    DCD    1699108068
        0x0000212c:    8c887d69    i}..    DCD    2357755241
        0x00002130:    5b236b84    .k#[    DCD    1529047940
        0x00002134:    63636b63    ckcc    DCD    1667459939
        0x00002138:    52626b43    CkbR    DCD    1382181699
        0x0000213c:    7ce66bc5    .k.|    DCD    2095475653
        0x00002140:    5b016401    .d.[    DCD    1526817793
        0x00002144:    7c636b42    Bkc|    DCD    2086890306
        0x00002148:    8d0284e3    ....    DCD    2365752547
        0x0000214c:    8ce08d00    ....    DCD    2363526400
        0x00002150:    8ce18d01    ....    DCD    2363591937
        0x00002154:    742084c0    .. t    DCD    1948288192
        0x00002158:    634463e2    .cDc    DCD    1665426402
        0x0000215c:    4b236283    .b#K    DCD    1260610179
        0x00002160:    4a824322    "C.J    DCD    1250050850
        0x00002164:    52835ae4    .Z.R    DCD    1384340196
        0x00002168:    530452a3    .R.S    DCD    1392792227
        0x0000216c:    42624b24    $KbB    DCD    1113738020
        0x00002170:    42434242    BBCB    DCD    1111704130
        0x00002174:    7c475444    DTG|    DCD    2085049412
        0x00002178:    3a216b45    Ek!:    DCD    975268677
        0x0000217c:    93c86ae4    .j..    DCD    2479385316
        0x00002180:    83c883a7    ....    DCD    2210956199
        0x00002184:    73629364    d.bs    DCD    1935840100
        0x00002188:    63446b85    .kDc    DCD    1665428357
        0x0000218c:    adc78466    f...    DCD    2915533926
        0x00002190:    9526b626    &.&.    DCD    2502342182
        0x00002194:    73a58c26    &..s    DCD    1940229158
        0x00002198:    8c889469    i...    DCD    2357761129
        0x0000219c:    63e46c24    $l.c    DCD    1675914276
        0x000021a0:    64a55be4    .[.d    DCD    1688558564
        0x000021a4:    84487ce8    .|H.    DCD    2219343080
        0x000021a8:    4a415b03    .[AJ    DCD    1245797123
        0x000021ac:    6b036b03    .k.k    DCD    1795386115
        0x000021b0:    41e15a81    .Z.A    DCD    1105287809
        0x000021b4:    6bc44a83    .J.k    DCD    1808026243
        0x000021b8:    6be263e2    .c.k    DCD    1809998818
        0x000021bc:    95028482    ....    DCD    2499970178
        0x000021c0:    84e08d01    ....    DCD    2229308673
        0x000021c4:    8d0084c0    ....    DCD    2365621440
        0x000021c8:    84a08d01    ....    DCD    2225114369
        0x000021cc:    5b217401    .t![    DCD    1528919041
        0x000021d0:    63a55be4    .[.c    DCD    1671781348
        0x000021d4:    3ae15aa2    .Z.:    DCD    987847330
        0x000021d8:    4ac23b20     ;.J    DCD    1254243104
        0x000021dc:    73456b66    fkEs    DCD    1933929318
        0x000021e0:    5ae45242    BR.Z    DCD    1524912706
        0x000021e4:    42834b04    .K.B    DCD    1115900676
        0x000021e8:    31c13a02    .:.1    DCD    834746882
        0x000021ec:    bcca9468    h...    DCD    3167392872
        0x000021f0:    21e07365    es.!    DCD    568357733
        0x000021f4:    8ba74222    "B..    DCD    2342994466
        0x000021f8:    7b878386    ...{    DCD    2072478598
        0x000021fc:    83e68b23    #...    DCD    2212924195
        0x00002200:    63447be7    .{Dc    DCD    1665432551
        0x00002204:    b6278cc6    ..'.    DCD    3056045254
        0x00002208:    94e6b626    &...    DCD    2498147878
        0x0000220c:    73a47ba4    .{.s    DCD    1940159396
        0x00002210:    94a99488    ....    DCD    2494141576
        0x00002214:    73c57c45    E|.s    DCD    1942322245
        0x00002218:    6ba55b04    .[.k    DCD    1805998852
        0x0000221c:    73e67c47    G|.s    DCD    1944484935
        0x00002220:    29604a82    .J`)    DCD    694176386
        0x00002224:    6b035a82    .Z.k    DCD    1795381890
        0x00002228:    41e15241    AR.A    DCD    1105285697
        0x0000222c:    6bc35282    .R.k    DCD    1807962754
        0x00002230:    84a17442    Bt..    DCD    2225173570
        0x00002234:    8d018d01    ....    DCD    2365689089
        0x00002238:    84c084c0    ....    DCD    2227209408
        0x0000223c:    8d018d01    ....    DCD    2365689089
        0x00002240:    63a084c0    ...c    DCD    1671464128
        0x00002244:    6b246b63    ck$k    DCD    1797548899
        0x00002248:    5ba463e5    .c.[    DCD    1537500133
        0x0000224c:    3ac04aa1    .J.:    DCD    985680545
        0x00002250:    4ac23b40    @;.J    DCD    1254243136
        0x00002254:    94497ba7    .{I.    DCD    2487843751
        0x00002258:    5aa36283    .b.Z    DCD    1520657027
        0x0000225c:    42634ac3    .JcB    DCD    1113803459
        0x00002260:    39e139e1    .9.9    DCD    971061729
        0x00002264:    dcebccac    ....    DCD    3706440876
        0x00002268:    42619c27    '.aB    DCD    1113693223
        0x0000226c:    73252a00    .*%s    DCD    1931815424
        0x00002270:    7b8583a6    ...{    DCD    2072347558
        0x00002274:    948993c3    ....    DCD    2492044227
        0x00002278:    5b437c07    .|C[    DCD    1531149319
        0x0000227c:    b6469526    &.F.    DCD    3058079014
        0x00002280:    8c66b5e7    ..f.    DCD    2355541479
        0x00002284:    63636b23    #kcc    DCD    1667459875
        0x00002288:    94a99488    ....    DCD    2494141576
        0x0000228c:    7c467c85    .|F|    DCD    2084994181
        0x00002290:    73c66365    ec.s    DCD    1942381413
        0x00002294:    73e68448    H..s    DCD    1944486984
        0x00002298:    29604a82    .J`)    DCD    694176386
        0x0000229c:    5aa24a01    .J.Z    DCD    1520585217
        0x000022a0:    52e24a62    bJ.R    DCD    1390561890
        0x000022a4:    84826bc3    .k..    DCD    2223139779
        0x000022a8:    84c084c1    ....    DCD    2227209409
        0x000022ac:    7ca07ca0    .|.|    DCD    2090892448
        0x000022b0:    95218ce0    ..!.    DCD    2502003936
        0x000022b4:    84c18d00    ....    DCD    2227277056
        0x000022b8:    53417482    .tAS    DCD    1396798594
        0x000022bc:    73a673a4    .s.s    DCD    1940288420
        0x000022c0:    53835ba4    .[.S    DCD    1401117604
        0x000022c4:    3ae042c0    .B.:    DCD    987775680
        0x000022c8:    4ac24b81    .K.J    DCD    1254247297
        0x000022cc:    946a6b86    .kj.    DCD    2490002310
        0x000022d0:    5a626b05    .kbZ    DCD    1516399365
        0x000022d4:    3a024a42    BJ.:    DCD    973228610
        0x000022d8:    52e34a83    .J.R    DCD    1390627459
        0x000022dc:    ecedf50f    ....    DCD    3975017743
        0x000022e0:    5b24aca8    ..$[    DCD    1529130152
        0x000022e4:    5ae442a2    .B.Z    DCD    1524908706
        0x000022e8:    8bc57b86    .{..    DCD    2344975238
        0x000022ec:    94a99445    E...    DCD    2494141509
        0x000022f0:    63636ba6    .kcc    DCD    1667460006
        0x000022f4:    b6469525    %.F.    DCD    3058079013
        0x000022f8:    7bc5adc7    ...{    DCD    2076552647
        0x000022fc:    5b235ac2    .Z#[    DCD    1529043650
        0x00002300:    94c99489    ....    DCD    2496238729
        0x00002304:    84a77ca5    .|..    DCD    2225568933
        0x00002308:    84077c07    .|..    DCD    2215083015
        0x0000230c:    7c468c88    ..F|    DCD    2084998280
        0x00002310:    42215b43    C[!B    DCD    1109482307
        0x00002314:    53224241    AB"S    DCD    1394754113
        0x00002318:    5c024ba2    .K.\    DCD    1543654306
        0x0000231c:    84c17482    .t..    DCD    2227270786
        0x00002320:    7c607c80    .|`|    DCD    2086698112
        0x00002324:    8d0184a0    ....    DCD    2365686944
        0x00002328:    8ce09541    A...    DCD    2363528513
        0x0000232c:    74a17460    `t.t    DCD    1956738144
        0x00002330:    5bc374a4    .t.[    DCD    1539536036
        0x00002334:    74067425    %t.t    DCD    1946580005
        0x00002338:    43424b23    #KBC    DCD    1128418083
        0x0000233c:    430042c0    .B.C    DCD    1124090560
        0x00002340:    532353a2    .S#S    DCD    1394824098
        0x00002344:    8c495b04    .[I.    DCD    2353617668
        0x00002348:    5a426b05    .kBZ    DCD    1514302213
        0x0000234c:    41c149e1    .I.A    DCD    1103186401
        0x00002350:    5b6452e4    .Rd[    DCD    1533301476
        0x00002354:    f50fe52e    ....    DCD    4111459630
        0x00002358:    7c07b4e9    ...|    DCD    2080879849
        0x0000235c:    52e35343    CS.R    DCD    1390629699
        0x00002360:    9c256b65    ek%.    DCD    2619698021
        0x00002364:    8c898c47    G...    DCD    2357824583
        0x00002368:    63a25304    .S.c    DCD    1671582468
        0x0000236c:    ae069566    f...    DCD    2919667046
        0x00002370:    6b04a547    G..k    DCD    1795466567
        0x00002374:    5b635282    .Rc[    DCD    1533235842
        0x00002378:    94a99489    ....    DCD    2494141577
        0x0000237c:    8ce87485    .t..    DCD    2364044421
        0x00002380:    84288468    h.(.    DCD    2217247848
        0x00002384:    7c668ca9    ..f|    DCD    2087095465
        0x00002388:    5b426bc4    .kB[    DCD    1531079620
        0x0000238c:    54614ba1    .KaT    DCD    1415662497
        0x00002390:    54824cc2    .L.T    DCD    1417825474
        0x00002394:    74606460    `d`t    DCD    1952474208
        0x00002398:    84c17c60    `|..    DCD    2227272800
        0x0000239c:    95419521    !.A.    DCD    2504103201
        0x000023a0:    74608ce0    ..`t    DCD    1952484576
        0x000023a4:    746363e0    .cct    DCD    1952670688
        0x000023a8:    5c0374e4    .t.\    DCD    1543730404
        0x000023ac:    5c046c64    dl.\    DCD    1543793764
        0x000023b0:    4b623ae1    .:bK    DCD    1264728801
        0x000023b4:    4b214b01    .K!K    DCD    1260473089
        0x000023b8:    5b635be3    .[c[    DCD    1533238243
        0x000023bc:    73e74aa3    .J.s    DCD    1944537763
        0x000023c0:    49e25ae4    .Z.I    DCD    1239571172
        0x000023c4:    49e149c2    .I.I    DCD    1239501250
        0x000023c8:    63e56365    ec.c    DCD    1675977573
        0x000023cc:    cccb64e1    .d..    DCD    3435881697
        0x000023d0:    8c68ac88    ..h.    DCD    2355670152
        0x000023d4:    4b2353c3    .S#K    DCD    1260606403
        0x000023d8:    9c256345    Ec%.    DCD    2619695941
        0x000023dc:    844983e7    ..I.    DCD    2219410407
        0x000023e0:    74234ac3    .J#t    DCD    1948469955
        0x000023e4:    9da795a7    ....    DCD    2645005735
        0x000023e8:    526294a6    ..bR    DCD    1382192294
        0x000023ec:    63a24241    AB.c    DCD    1671578177
        0x000023f0:    8c6894c8    ..h.    DCD    2355664072
        0x000023f4:    95098467    g...    DCD    2500428903
        0x000023f8:    84288ca8    ..(.    DCD    2217249960
        0x000023fc:    7c468468    h.F|    DCD    2084996200
        0x00002400:    64427424    $tBd    DCD    1682076708
        0x00002404:    550154c2    .T.U    DCD    1426150594
        0x00002408:    54204ca2    .L T    DCD    1411402914
        0x0000240c:    7c806c40    @l.|    DCD    2088791104
        0x00002410:    95438d01    ..C.    DCD    2504232193
        0x00002414:    7ca08d21    !..|    DCD    2090896673
        0x00002418:    7c257c63    c|%|    DCD    2082831459
        0x0000241c:    6c0373c4    .s.l    DCD    1812165572
        0x00002420:    53c26422    "d.S    DCD    1405248546
        0x00002424:    54255c64    d\%T    DCD    1411734628
        0x00002428:    53e43b21    !;.S    DCD    1407466273
        0x0000242c:    4b014b21    !K.K    DCD    1258375969
        0x00002430:    53835be3    .[.S    DCD    1401117667
        0x00002434:    5b643a81    .:d[    DCD    1533295233
        0x00002438:    4a014ae2    .J.J    DCD    1241598690
        0x0000243c:    6b245a23    #Z$k    DCD    1797544483
        0x00002440:    63c573e7    .s.c    DCD    1673884647
        0x00002444:    64c164e1    .d.d    DCD    1690395873
        0x00002448:    9c279486    ..'.    DCD    2619839622
        0x0000244c:    53845bc4    .[.S    DCD    1401183172
        0x00002450:    94257385    .s%.    DCD    2485482373
        0x00002454:    7be88408    ...{    DCD    2078835720
        0x00002458:    7c855303    .S.|    DCD    2089112323
        0x0000245c:    95889de8    ....    DCD    2508758504
        0x00002460:    4a428426    &.BJ    DCD    1245873190
        0x00002464:    63a24221    !B.c    DCD    1671578145
        0x00002468:    8c488ca8    ..H.    DCD    2353564840
        0x0000246c:    8ca87c07    .|..    DCD    2359852039
        0x00002470:    7c478487    ..G|    DCD    2085061767
        0x00002474:    74247c46    F|$t    DCD    1948548166
        0x00002478:    54c16c63    cl.T    DCD    1421962339
        0x0000247c:    4cc24d01    .M.L    DCD    1287802113
        0x00002480:    74405c61    a\@t    DCD    1950375009
        0x00002484:    952184c0    ..!.    DCD    2502001856
        0x00002488:    8ce29542    B...    DCD    2363659586
        0x0000248c:    6c027460    `t.l    DCD    1812100192
        0x00002490:    84067c46    F|..    DCD    2215017542
        0x00002494:    5b227364    ds"[    DCD    1528984420
        0x00002498:    4b015341    AS.K    DCD    1258378049
        0x0000249c:    54464be3    .KFT    DCD    1413893091
        0x000024a0:    54044be5    .K.T    DCD    1409567717
        0x000024a4:    3aa04321    !C.:    DCD    983581473
        0x000024a8:    43024b82    .K.C    DCD    1124223874
        0x000024ac:    3b012a60    `*.;    DCD    989932128
        0x000024b0:    4aa24341    AC.J    DCD    1252148033
        0x000024b4:    6b656283    .bek    DCD    1801806467
        0x000024b8:    532373c6    .s#S    DCD    1394832326
        0x000024bc:    65026520     e.e    DCD    1694655776
        0x000024c0:    8c2564a2    .d%.    DCD    2351260834
        0x000024c4:    4b8363c5    .c.K    DCD    1266901957
        0x000024c8:    84468c26    &.F.    DCD    2219215910
        0x000024cc:    73467be7    .{Fs    DCD    1933999079
        0x000024d0:    84c55b23    #[..    DCD    2227526435
        0x000024d4:    9588a608    ....    DCD    2508760584
        0x000024d8:    526273e5    .sbR    DCD    1382183909
        0x000024dc:    53214200    .B!S    DCD    1394688512
        0x000024e0:    94698467    g.i.    DCD    2489943143
        0x000024e4:    7c0673a6    .s.|    DCD    2080797606
        0x000024e8:    7c667c66    f|f|    DCD    2087091302
        0x000024ec:    74437c64    d|Ct    DCD    1950579812
        0x000024f0:    55015cc1    .\.U    DCD    1426152641
        0x000024f4:    5ca24ce1    .L.\    DCD    1554140385
        0x000024f8:    8ce17ca2    .|..    DCD    2363587746
        0x000024fc:    8d219521    !.!.    DCD    2367788321
        0x00002500:    6c007ca0    .|.l    DCD    1811971232
        0x00002504:    6ba45b81    .[.k    DCD    1805933441
        0x00002508:    73857c07    .|.s    DCD    1938127879
        0x0000250c:    4a416282    .bAJ    DCD    1245799042
        0x00002510:    42a14281    .B.B    DCD    1117864577
        0x00002514:    5c254362    bC%\    DCD    1545945954
        0x00002518:    5c865466    fT.\    DCD    1552307302
        0x0000251c:    21e03ae1    .:.!    DCD    568343265
        0x00002520:    2a8032c0    .2.*    DCD    713044672
        0x00002524:    2aa021e0    .!.*    DCD    715137504
        0x00002528:    4b023b61    a;.K    DCD    1258437473
        0x0000252c:    634452a3    .RDc    DCD    1665421987
        0x00002530:    32405303    .S@2    DCD    843076355
        0x00002534:    63a16be3    .k.c    DCD    1671523299
        0x00002538:    5c826d01    .m.\    DCD    1552051457
        0x0000253c:    536463a5    .cdS    DCD    1399088037
        0x00002540:    740694a6    ...t    DCD    1946588326
        0x00002544:    62c473c6    .s.b    DCD    1657041862
        0x00002548:    84e55b42    B[..    DCD    2229623618
        0x0000254c:    95a8a608    ....    DCD    2510857736
        0x00002550:    52826be5    .k.R    DCD    1384279013
        0x00002554:    3a4039c0    .9@:    DCD    977287616
        0x00002558:    84286bc5    .k(.    DCD    2217241541
        0x0000255c:    63a46b85    .k.c    DCD    1671719813
        0x00002560:    74637464    dtct    DCD    1952674916
        0x00002564:    64a17482    .t.d    DCD    1688302722
        0x00002568:    55015501    .U.U    DCD    1426150657
        0x0000256c:    74a34ca1    .L.t    DCD    1956859041
        0x00002570:    95219522    ".!.    DCD    2502006050
        0x00002574:    746084e0    ..`t    DCD    1952482528
        0x00002578:    42e05ba0    .[.B    DCD    1121999776
        0x0000257c:    636452e2    .Rdc    DCD    1667519202
        0x00002580:    52c26385    .c.R    DCD    1388471173
        0x00002584:    318041c0    .A.1    DCD    830489024
        0x00002588:    42c13240    @2.B    DCD    1119957568
        0x0000258c:    53a34b41    AK.S    DCD    1403210561
        0x00002590:    64c75c66    f\.d    DCD    1690786918
        0x00002594:    19804383    .C..    DCD    427836291
        0x00002598:    21e02200    .".!    DCD    568336896
        0x0000259c:    2a2021c0    .! *    DCD    706748864
        0x000025a0:    3ac13b21    !;.:    DCD    985742113
        0x000025a4:    53224ac2    .J"S    DCD    1394756290
        0x000025a8:    21e03a20     :.!    DCD    568343072
        0x000025ac:    5ae14280    .B.Z    DCD    1524712064
        0x000025b0:    65017cc4    .|.e    DCD    1694596292
        0x000025b4:    74057466    ft.t    DCD    1946514534
        0x000025b8:    5b458c86    ..E[    DCD    1531284614
        0x000025bc:    632473c6    .s$c    DCD    1663333318
        0x000025c0:    84e46be2    .k..    DCD    2229562338
        0x000025c4:    8d87a5a6    ....    DCD    2374477222
        0x000025c8:    5aa37446    Ft.Z    DCD    1520661574
        0x000025cc:    32c14261    aB.2    DCD    851526241
        0x000025d0:    64043b81    .;.d    DCD    1677998977
        0x000025d4:    6c236be4    .k#l    DCD    1814260708
        0x000025d8:    6c626c62    blbl    DCD    1818389602
        0x000025dc:    54806461    ad.T    DCD    1417700449
        0x000025e0:    4ce14ce1    .L.L    DCD    1289833697
        0x000025e4:    85025482    .T..    DCD    2231522434
        0x000025e8:    7ca08d01    ...|    DCD    2090896641
        0x000025ec:    53406c00    .l@S    DCD    1396730880
        0x000025f0:    322042a0    .B 2    DCD    840975008
        0x000025f4:    4aa33a21    !:.J    DCD    1252211233
        0x000025f8:    53435324    $SCS    DCD    1396921124
        0x000025fc:    29604a42    BJ`)    DCD    694176322
        0x00002600:    4b012a00    .*.K    DCD    1258367488
        0x00002604:    42a05341    AS.B    DCD    1117803329
        0x00002608:    64a64b82    .K.d    DCD    1688619906
        0x0000260c:    32415c26    &\A2    DCD    843144230
        0x00002610:    29e03260    `2.)    DCD    702558816
        0x00002614:    2a4021c0    .!@*    DCD    708846016
        0x00002618:    32a03b01    .;.2    DCD    849361665
        0x0000261c:    638442a1    .B.c    DCD    1669612193
        0x00002620:    21c04ac1    .J.!    DCD    566250177
        0x00002624:    5a806b01    .k.Z    DCD    1518365441
        0x00002628:    64e15340    @S.d    DCD    1692488512
        0x0000262c:    6ca36501    .e.l    DCD    1822647553
        0x00002630:    5b258447    G.%[    DCD    1529185351
        0x00002634:    6bc56ba6    .k.k    DCD    1808100262
        0x00002638:    8d0484c4    ....    DCD    2365883588
        0x0000263c:    7d269524    $.&}    DCD    2099680548
        0x00002640:    5b047466    ft.[    DCD    1527018598
        0x00002644:    3be14382    .C.;    DCD    1004618626
        0x00002648:    4c403c20     <@L    DCD    1279278112
        0x0000264c:    6c416422    "dAl    DCD    1816224802
        0x00002650:    64416421    !dAd    DCD    1682007073
        0x00002654:    4cc05461    aT.L    DCD    1287672929
        0x00002658:    4cc14cc0    .L.L    DCD    1287736512
        0x0000265c:    84c16481    .d..    DCD    2227266689
        0x00002660:    6c007460    `t.l    DCD    1811969120
        0x00002664:    3a605340    @S`:    DCD    979391296
        0x00002668:    29c03240    @2.)    DCD    700461632
        0x0000266c:    4a6221c0    .!bJ    DCD    1247945152
        0x00002670:    5bc55304    .S.[    DCD    1539658500
        0x00002674:    4a015b25    %[.J    DCD    1241602853
        0x00002678:    532231c0    .1"S    DCD    1394749888
        0x0000267c:    31e05b42    B[.1    DCD    836787010
        0x00002680:    5c043a20     :.\    DCD    1543780896
        0x00002684:    53645c26    &\dS    DCD    1399086118
        0x00002688:    4ac24ae2    .J.J    DCD    1254247138
        0x0000268c:    32204241    AB 2    DCD    840974913
        0x00002690:    3aa13ae1    .:.:    DCD    983644897
        0x00002694:    6bc64262    bB.k    DCD    1808155234
        0x00002698:    19a05b23    #[..    DCD    429939491
        0x0000269c:    63a27aa2    .z.c    DCD    1671592610
        0x000026a0:    6ca47483    .t.l    DCD    1822717059
        0x000026a4:    64e16d41    Am.d    DCD    1692495169
        0x000026a8:    63667425    %tfc    DCD    1667658789
        0x000026ac:    7c656366    fce|    DCD    2087019366
        0x000026b0:    8d049d65    e...    DCD    2365889893
        0x000026b4:    64237c62    b|#d    DCD    1680047202
        0x000026b8:    63a47445    Et.c    DCD    1671722053
        0x000026bc:    54c24482    .D.T    DCD    1422017666
        0x000026c0:    4ca04ca0    .L.L    DCD    1285573792
        0x000026c4:    64205c40    @\ d    DCD    1679842368
        0x000026c8:    74638b52    R.ct    DCD    1952680786
        0x000026cc:    55015c81    .\.U    DCD    1426152577
        0x000026d0:    5ce254e0    .T.\    DCD    1558336736
        0x000026d4:    6c406c60    `l@l    DCD    1816161376
        0x000026d8:    63e15ba0    .[.c    DCD    1675713440
        0x000026dc:    29e05b21    ![.)    DCD    702569249
        0x000026e0:    32002a00    .*.2    DCD    838871552
        0x000026e4:    4a6231e0    .1bJ    DCD    1247949280
        0x000026e8:    5bc552c3    .R.[    DCD    1539658435
        0x000026ec:    52636bc6    .kcR    DCD    1382247366
        0x000026f0:    63864242    BB.c    DCD    1669743170
        0x000026f4:    31a05b03    .[.1    DCD    832592643
        0x000026f8:    5bc23a40    @:.[    DCD    1539455552
        0x000026fc:    63855c25    %\.c    DCD    1669684261
        0x00002700:    6b855b44    D[.k    DCD    1803901764
        0x00002704:    422173a5    .s!B    DCD    1109488549
        0x00002708:    326042a2    .B`2    DCD    845169314
        0x0000270c:    7ba74242    BB.{    DCD    2074559042
        0x00002710:    21e06b85    .k.!    DCD    568355717
        0x00002714:    74a47343    Cs.t    DCD    1956934467
        0x00002718:    8de57dc5    .}..    DCD    2380627397
        0x0000271c:    6d206482    .d m    DCD    1830839426
        0x00002720:    73c664a1    .d.s    DCD    1942381729
        0x00002724:    8cc66345    Ec..    DCD    2361811781
        0x00002728:    9526adc6    ..&.    DCD    2502340038
        0x0000272c:    4b216be3    .k!K    DCD    1260481507
        0x00002730:    640363c4    .c.d    DCD    1677943748
        0x00002734:    65625501    .Ube    DCD    1700943105
        0x00002738:    54e05d01    .].T    DCD    1423990017
        0x0000273c:    8b6f5c60    `\o.    DCD    2339331168
        0x00002740:    7c85c3bd    ...|    DCD    2089141181
        0x00002744:    5d215ce1    .\!]    DCD    1562467553
        0x00002748:    65435d42    B]Ce    DCD    1698913602
        0x0000274c:    5bc06ca1    .l.[    DCD    1539337377
        0x00002750:    6be35340    @S.k    DCD    1810060096
        0x00002754:    21c06344    Dc.!    DCD    566256452
        0x00002758:    42a02a40    @*.B    DCD    1117792832
        0x0000275c:    5aa34261    aB.Z    DCD    1520648801
        0x00002760:    53634a61    aJcS    DCD    1399016033
        0x00002764:    52a35b84    .[.R    DCD    1386437508
        0x00002768:    740752c4    .R.t    DCD    1946636996
        0x0000276c:    3ae05b24    $[.:    DCD    987781924
        0x00002770:    64814c00    .L.d    DCD    1686195200
        0x00002774:    6bc66443    Cd.k    DCD    1808163907
        0x00002778:    7bc65b24    $[.{    DCD    2076597028
        0x0000277c:    52828c47    G..R    DCD    1384287303
        0x00002780:    32004201    .B.2    DCD    838877697
        0x00002784:    7b674222    "Bg{    DCD    2070364706
        0x00002788:    29e06b45    Ek.)    DCD    702573381
        0x0000278c:    74846384    .c.t    DCD    1954833284
        0x00002790:    7da47da4    .}.}    DCD    2107932068
        0x00002794:    64c26c82    .l.d    DCD    1690463362
        0x00002798:    6c6364e0    .dcl    DCD    1818453216
        0x0000279c:    8ce66bc4    .k..    DCD    2363911108
        0x000027a0:    9526ade7    ..&.    DCD    2502340071
        0x000027a4:    42a26382    .c.B    DCD    1117938562
        0x000027a8:    5c425b83    .[B\    DCD    1547852675
        0x000027ac:    6da25d61    a].m    DCD    1839357281
        0x000027b0:    5d206541    Ae ]    DCD    1562404161
        0x000027b4:    b35c73e9    .s\.    DCD    3009180649
        0x000027b8:    bbf9cbbe    ....    DCD    3153710014
        0x000027bc:    5d616523    #ea]    DCD    1566663971
        0x000027c0:    65845d62    b].e    DCD    1703173474
        0x000027c4:    840a7564    du..    DCD    2215277924
        0x000027c8:    5b838b71    q..[    DCD    1535347569
        0x000027cc:    21c06324    $c.!    DCD    566256420
        0x000027d0:    42a02200    .".B    DCD    1117790720
        0x000027d4:    5aa352a2    .R.Z    DCD    1520652962
        0x000027d8:    4ac24a41    AJ.J    DCD    1254246977
        0x000027dc:    426242e2    .BbB    DCD    1113735906
        0x000027e0:    744852e4    .RHt    DCD    1950896868
        0x000027e4:    54805c04    .\.T    DCD    1417698308
        0x000027e8:    5d0154e0    .T.]    DCD    1560368352
        0x000027ec:    6be56482    .d.k    DCD    1810195586
        0x000027f0:    63244a82    .J$c    DCD    1663322754
        0x000027f4:    5a828427    '..Z    DCD    1518502951
        0x000027f8:    39e05220     R.9    DCD    971002400
        0x000027fc:    7b264a84    .J&{    DCD    2066107012
        0x00002800:    31c062a4    .b.1    DCD    834691748
        0x00002804:    5c826423    #d.\    DCD    1552049187
        0x00002808:    5ce25ce2    .\.\    DCD    1558338786
        0x0000280c:    6cc25ce2    .\.l    DCD    1824677090
        0x00002810:    74a264c0    .d.t    DCD    1956799680
        0x00002814:    84e55442    BT..    DCD    2229621826
        0x00002818:    9505ade6    ....    DCD    2500177382
        0x0000281c:    4b225b43    C["K    DCD    1260542787
        0x00002820:    5c4153c2    .SA\    DCD    1547785154
        0x00002824:    6dc16581    .e.m    DCD    1841390977
        0x00002828:    6d236581    .e#m    DCD    1831036289
        0x0000282c:    cbbdbb9a    ....    DCD    3418209178
        0x00002830:    dc3fd3fe    ..?.    DCD    3695170558
        0x00002834:    6582ac75    u..e    DCD    1703062645
        0x00002838:    6da46562    be.m    DCD    1839490402
        0x0000283c:    bb3c7dc7    .}<.    DCD    3141303751
        0x00002840:    8b72cbde    ..r.    DCD    2339556318
        0x00002844:    31e15ae4    .Z.1    DCD    836852452
        0x00002848:    426029c0    .)`B    DCD    1113598400
        0x0000284c:    5ac352a2    .R.Z    DCD    1522750114
        0x00002850:    32004221    !B.2    DCD    838877729
        0x00002854:    31c13220     2.1    DCD    834744864
        0x00002858:    64254aa4    .J%d    DCD    1680165540
        0x0000285c:    552054c2    .T U    DCD    1428182210
        0x00002860:    55205500    .U U    DCD    1428182272
        0x00002864:    6c435cc1    .\Cl    DCD    1816353985
        0x00002868:    42614aa2    .JaB    DCD    1113672354
        0x0000286c:    4a416b64    dkAJ    DCD    1245801316
        0x00002870:    5aa25a20     Z.Z    DCD    1520589344
        0x00002874:    73266b26    &k&s    DCD    1931897638
        0x00002878:    29a05222    "R.)    DCD    698372642
        0x0000287c:    4cc05481    .T.L    DCD    1287672961
        0x00002880:    54c154a1    .T.T    DCD    1421956257
        0x00002884:    54e15ce1    .\.T    DCD    1424055521
        0x00002888:    64e06482    .d.d    DCD    1692427394
        0x0000288c:    54c24ca1    .L.T    DCD    1422019745
        0x00002890:    84c38d45    E...    DCD    2227408197
        0x00002894:    4bc253a2    .S.K    DCD    1271026594
        0x00002898:    54404c01    .L@T    DCD    1413499905
        0x0000289c:    6dc26581    .e.m    DCD    1841456513
        0x000028a0:    b3d975c1    .u..    DCD    3017373121
        0x000028a4:    d3becc1d    ....    DCD    3552496669
        0x000028a8:    dc3fd3de    ..?.    DCD    3695170526
        0x000028ac:    7567dc3f    ?.gu    DCD    1969740863
        0x000028b0:    6dc36581    .e.m    DCD    1841522049
        0x000028b4:    d3be9bd3    ....    DCD    3552484307
        0x000028b8:    c339dbff    ..9.    DCD    3275348991
        0x000028bc:    522372ab    .r#R    DCD    1378054827
        0x000028c0:    827239c0    .9r.    DCD    2188523968
        0x000028c4:    62e382b2    ...b    DCD    1659077298
        0x000028c8:    29e04241    AB.)    DCD    702562881
        0x000028cc:    298031c0    .1.)    DCD    696267200
        0x000028d0:    4c424243    CBBL    DCD    1279410755
        0x000028d4:    55205521    !U U    DCD    1428182305
        0x000028d8:    55205520     U U    DCD    1428182304
        0x000028dc:    5cc15501    .U.\    DCD    1556174081
        0x000028e0:    420142e1    .B.B    DCD    1107378913
        0x000028e4:    31c04241    AB.1    DCD    834683457
        0x000028e8:    7b655a40    @Ze{    DCD    2070239808
        0x000028ec:    6b067367    gs.k    DCD    1795584871
        0x000028f0:    31c141c1    .A.1    DCD    834748865
        0x000028f4:    4ca04ca0    .L.L    DCD    1285573792
        0x000028f8:    4cc14ca0    .L.L    DCD    1287736480
        0x000028fc:    54c14ce1    .L.T    DCD    1421954273
        0x00002900:    646154a1    .Tad    DCD    1684100257
        0x00002904:    4cc154a1    .T.L    DCD    1287738529
        0x00002908:    64c25cc1    .\.d    DCD    1690459329
        0x0000290c:    4ca14c81    .L.L    DCD    1285639297
        0x00002910:    54a04ca1    .L.T    DCD    1419791521
        0x00002914:    6da26522    "e.m    DCD    1839359266
        0x00002918:    d43e9c8f    ..>.    DCD    3560873103
        0x0000291c:    e49fdc7f    ....    DCD    3835681919
        0x00002920:    dc3fe47f    ..?.    DCD    3695174783
        0x00002924:    c43be45f    _.;.    DCD    3292259423
        0x00002928:    6dc365a3    .e.m    DCD    1841522083
        0x0000292c:    dbdfbb3a    :...    DCD    3688872762
        0x00002930:    a1b0dbff    ....    DCD    2712722431
        0x00002934:    b35ad3be    ..Z.    DCD    3009074110
        0x00002938:    ab1989f4    ....    DCD    2870577652
        0x0000293c:    7acdb39b    ...z    DCD    2060301211
        0x00002940:    2a004262    bB.*    DCD    704660066
        0x00002944:    31a131c0    .1.1    DCD    832647616
        0x00002948:    4ce13ae1    .:.L    DCD    1289829089
        0x0000294c:    55205520     U U    DCD    1428182304
        0x00002950:    55405540    @U@U    DCD    1430279488
        0x00002954:    55015501    .U.U    DCD    1426150657
        0x00002958:    4a214b61    aK!J    DCD    1243695969
        0x0000295c:    29603a21    !:`)    DCD    694172193
        0x00002960:    7ba662c3    .b.{    DCD    2074501827
        0x00002964:    5ac473c7    .s.Z    DCD    1522824135
        0x00002968:    3a624242    BBb:    DCD    979518018
        0x0000296c:    44814ca0    .L.D    DCD    1149324448
        0x00002970:    4ca04481    .D.L    DCD    1285571713
        0x00002974:    4ca14cc0    .L.L    DCD    1285639360
        0x00002978:    4b804481    .D.K    DCD    1266697345
        0x0000297c:    4cc154a2    .T.L    DCD    1287738530
        0x00002980:    54c24cc1    .L.T    DCD    1422019777
        0x00002984:    4cc154c1    .T.L    DCD    1287738561
        0x00002988:    5d0154e1    .T.]    DCD    1560368353
        0x0000298c:    65426522    "eBe    DCD    1698850082
        0x00002990:    dc1fab5a    Z...    DCD    3693063002
        0x00002994:    e47fe49f    ....    DCD    3833586847
        0x00002998:    e45fe47f    .._.    DCD    3831489663
        0x0000299c:    dc5fe45f    _._.    DCD    3697271903
        0x000029a0:    75e37d49    I}.u    DCD    1977843017
        0x000029a4:    dbbfc37c    |...    DCD    3686777724
        0x000029a8:    c2d6e41f    ....    DCD    3268863007
        0x000029ac:    d41ee43f    ?...    DCD    3558794303
        0x000029b0:    aad4a276    v...    DCD    2866061942
        0x000029b4:    ab3ac39c    ..:.    DCD    2872755100
        0x000029b8:    29e04282    .B.)    DCD    702562946
        0x000029bc:    424129c0    .)AB    DCD    1111566784
        0x000029c0:    55414401    .DAU    DCD    1430340609
        0x000029c4:    55205520     U U    DCD    1428182304
        0x000029c8:    5d415540    @UA]    DCD    1564562752
        0x000029cc:    55215521    !U!U    DCD    1428247841
        0x000029d0:    5a624ba1    .KbZ    DCD    1516391329
        0x000029d4:    42024201    .B.B    DCD    1107444225
        0x000029d8:    7bc783a8    ...{    DCD    2076672936
        0x000029dc:    5b436ba5    .kC[    DCD    1531145125
        0x000029e0:    3a8252a3    .R.:    DCD    981619363
        0x000029e4:    44614460    `DaD    DCD    1147225184
        0x000029e8:    4ca14481    .D.L    DCD    1285637249
        0x000029ec:    4cc14cc1    .L.L    DCD    1287736513
        0x000029f0:    4c2044a0    .D L    DCD    1277183136
        0x000029f4:    4ca15482    .T.L    DCD    1285641346
        0x000029f8:    3c214481    .D!<    DCD    1008813185
        0x000029fc:    2bc033e0    .3.+    DCD    734016480
        0x00002a00:    44613420     4aD    DCD    1147221024
        0x00002a04:    65425ce2    .\Be    DCD    1698847970
        0x00002a08:    d3febb5b    [...    DCD    3556686683
        0x00002a0c:    ec9fe47f    ....    DCD    3969901695
        0x00002a10:    e47fec7f    ....    DCD    3833588863
        0x00002a14:    dc7fe45f    _...    DCD    3699369055
        0x00002a18:    7e05c41c    ...~    DCD    2114307100
        0x00002a1c:    aa59cbbd    ..Y.    DCD    2858011581
        0x00002a20:    ec7fdbdd    ....    DCD    3967802333
        0x00002a24:    dc3fec7f    ..?.    DCD    3695176831
        0x00002a28:    aa32812e    ..2.    DCD    2855436590
        0x00002a2c:    b359cbbd    ..Y.    DCD    3009006525
        0x00002a30:    21e14b03    .K.!    DCD    568412931
        0x00002a34:    4b0129c0    .).K    DCD    1258367424
        0x00002a38:    554054e1    .T@U    DCD    1430279393
        0x00002a3c:    55405520     U@U    DCD    1430279456
        0x00002a40:    5d415d61    a]A]    DCD    1564564833
        0x00002a44:    55215521    !U!U    DCD    1428247841
        0x00002a48:    5a624be1    .KbZ    DCD    1516391393
        0x00002a4c:    736741e1    .Ags    DCD    1936146913
        0x00002a50:    7387944a    J..s    DCD    1938265162
        0x00002a54:    742463a3    .c$t    DCD    1948541859
        0x00002a58:    42e25b43    C[.B    DCD    1122130755
        0x00002a5c:    3c603c20     <`<    DCD    1012939808
        0x00002a60:    4ca14481    .D.L    DCD    1285637249
        0x00002a64:    4ce14cc1    .L.L    DCD    1289833665
        0x00002a68:    4c8044c0    .D.L    DCD    1283474624
        0x00002a6c:    33e04461    aD.3    DCD    870335585
        0x00002a70:    23802380    .#.#    DCD    595600256
        0x00002a74:    1b802380    .#..    DCD    461382528
        0x00002a78:    23a023a0    .#.#    DCD    597697440
        0x00002a7c:    4ca133e1    .3.L    DCD    1285632993
        0x00002a80:    c39d9b55    U...    DCD    3281886037
        0x00002a84:    ec9fec5f    _...    DCD    3969903711
        0x00002a88:    ec9fec9f    ....    DCD    3969903775
        0x00002a8c:    e47fe43f    ?...    DCD    3833586751
        0x00002a90:    8da8d45e    ^...    DCD    2376651870
        0x00002a94:    99d6d3be    ....    DCD    2580992958
        0x00002a98:    ec7fb292    ....    DCD    3967791762
        0x00002a9c:    e43ff49f    ..?.    DCD    3829396639
        0x00002aa0:    bb17814c    L...    DCD    3138879820
        0x00002aa4:    b39bd3de    ....    DCD    3013333982
        0x00002aa8:    3aa45365    eS.:    DCD    983847781
        0x00002aac:    43e121a1    .!.C    DCD    1138827681
        0x00002ab0:    55415541    AUAU    DCD    1430345025
        0x00002ab4:    5d615541    AUa]    DCD    1566659905
        0x00002ab8:    55415d61    a]AU    DCD    1430347105
        0x00002abc:    55215501    .U!U    DCD    1428247809
        0x00002ac0:    5a625401    .TbZ    DCD    1516393473
        0x00002ac4:    8c0a62c4    .b..    DCD    2349490884
        0x00002ac8:    5283946b    k..R    DCD    1384354923
        0x00002acc:    7c446341    AcD|    DCD    2084856641
        0x00002ad0:    43015bc2    .[.C    DCD    1124162498
        0x00002ad4:    3c603c40    @<`<    DCD    1012939840
        0x00002ad8:    4ca14481    .D.L    DCD    1285637249
        0x00002adc:    4ce14cc1    .L.L    DCD    1289833665
        0x00002ae0:    44804cc1    .L.D    DCD    1149258945
        0x00002ae4:    23602be0    .+`#    DCD    593505248
        0x00002ae8:    23a02380    .#.#    DCD    597697408
        0x00002aec:    23a023a0    .#.#    DCD    597697440
        0x00002af0:    23a02ba0    .+.#    DCD    597699488
        0x00002af4:    2be02be0    .+.+    DCD    736111584
        0x00002af8:    c35c5c07    .\\.    DCD    3277609991
        0x00002afc:    ec7fe43f    ?...    DCD    3967804479
        0x00002b00:    f49ff49f    ....    DCD    4104123551
        0x00002b04:    e47fec7f    ....    DCD    3833588863
        0x00002b08:    b458dc7f    ..X.    DCD    3025722495
        0x00002b0c:    8154d3de    ..T.    DCD    2169820126
        0x00002b10:    f47fcab4    ....    DCD    4102015668
        0x00002b14:    e45ff49f    .._.    DCD    3831493791
        0x00002b18:    d3dd814c    L...    DCD    3554509132
        0x00002b1c:    bbdcdbde    ....    DCD    3151813598
        0x00002b20:    53676c07    .lgS    DCD    1399286791
        0x00002b24:    54c23263    c2.T    DCD    1422013027
        0x00002b28:    55615d61    a]aU    DCD    1432444257
        0x00002b2c:    5d615d61    a]a]    DCD    1566661985
        0x00002b30:    55215d61    a]!U    DCD    1428249953
        0x00002b34:    55215501    .U!U    DCD    1428247809
        0x00002b38:    63845c82    .\.c    DCD    1669618818
        0x00002b3c:    8c2a6b86    .k*.    DCD    2351590278
        0x00002b40:    29a073a8    .s.)    DCD    698381224
        0x00002b44:    73c25a80    .Z.s    DCD    1942116992
        0x00002b48:    434153a1    .SAC    DCD    1128354721
        0x00002b4c:    44803c40    @<.D    DCD    1149254720
        0x00002b50:    44813c80    .<.D    DCD    1149320320
        0x00002b54:    4ce14ca1    .L.L    DCD    1289833633
        0x00002b58:    4c6154e1    .TaL    DCD    1281447137
        0x00002b5c:    3be143e0    .C.;    DCD    1004618720
        0x00002b60:    23a133c1    .3.#    DCD    597767105
        0x00002b64:    23802380    .#.#    DCD    595600256
        0x00002b68:    238023a0    .#.#    DCD    595600288
        0x00002b6c:    342023c0    .# 4    DCD    874521536
        0x00002b70:    bb3b3441    A4;.    DCD    3141219393
        0x00002b74:    ec5fd3be    .._.    DCD    3965703102
        0x00002b78:    f49ff47f    ....    DCD    4104123519
        0x00002b7c:    ec5fec9f    .._.    DCD    3965709471
        0x00002b80:    d3fee45f    _...    DCD    3556697183
        0x00002b84:    8994d3be    ....    DCD    2308232126
        0x00002b88:    f49fec3e    >...    DCD    4104121406
        0x00002b8c:    e43ef4bf    ..>.    DCD    3829331135
        0x00002b90:    dbff914c    L...    DCD    3690959180
        0x00002b94:    c3dcdbff    ....    DCD    3286031359
        0x00002b98:    63a87426    &t.c    DCD    1671984166
        0x00002b9c:    5d634ba5    .Kc]    DCD    1566788517
        0x00002ba0:    5d615d62    b]a]    DCD    1566661986
        0x00002ba4:    5d615d81    .]a]    DCD    1566662017
        0x00002ba8:    55215541    AU!U    DCD    1428247873
        0x00002bac:    5d415521    !UA]    DCD    1564562721
        0x00002bb0:    6c245ca3    .\$l    DCD    1814322339
        0x00002bb4:    74086405    .d.t    DCD    1946706949
        0x00002bb8:    22804b43    CK."    DCD    578833219
        0x00002bbc:    53213aa0    .:!S    DCD    1394686624
        0x00002bc0:    3b614341    ACa;    DCD    996229953
        0x00002bc4:    3c603c00    .<`<    DCD    1012939776
        0x00002bc8:    44814480    .D.D    DCD    1149322368
        0x00002bcc:    6d4154c1    .TAm    DCD    1832998081
        0x00002bd0:    7d817d80    .}.}    DCD    2105638272
        0x00002bd4:    7d618561    a.a}    DCD    2103543137
        0x00002bd8:    5ca07521    !u.\    DCD    1554019617
        0x00002bdc:    23803be1    .;.#    DCD    595606497
        0x00002be0:    23a023a0    .#.#    DCD    597697440
        0x00002be4:    2c0023c0    .#.,    DCD    738206656
        0x00002be8:    7b703461    a4p{    DCD    2070951009
        0x00002bec:    e41fcb7d    }...    DCD    3827288957
        0x00002bf0:    f49fec5f    _...    DCD    4104121439
        0x00002bf4:    ec1fec7f    ....    DCD    3961515135
        0x00002bf8:    dbdee3ff    ....    DCD    3688817663
        0x00002bfc:    b390d3dd    ....    DCD    3012613085
        0x00002c00:    ccb5ec3f    ?...    DCD    3434474559
        0x00002c04:    e49df4df    ....    DCD    3835557087
        0x00002c08:    dbfed39a    ....    DCD    3690910618
        0x00002c0c:    bbbddc1f    ....    DCD    3149782047
        0x00002c10:    5b466c04    .lF[    DCD    1531341828
        0x00002c14:    65835c65    e\.e    DCD    1703107685
        0x00002c18:    5d825d82    .].]    DCD    1568824706
        0x00002c1c:    5d615d82    .]a]    DCD    1566662018
        0x00002c20:    55415541    AUAU    DCD    1430345025
        0x00002c24:    5d215522    "U!]    DCD    1562465570
        0x00002c28:    548254a2    .T.T    DCD    1417827490
        0x00002c2c:    3be14441    AD.;    DCD    1004618817
        0x00002c30:    2ba02bc0    .+.+    DCD    731917248
        0x00002c34:    33a033c0    .3.3    DCD    866137024
        0x00002c38:    3b8133a0    .3.;    DCD    998323104
        0x00002c3c:    3c403b60    `;@<    DCD    1010842464
        0x00002c40:    75614480    .Dau    DCD    1969308800
        0x00002c44:    85a085c1    ....    DCD    2241889729
        0x00002c48:    8dc185a1    ....    DCD    2378270113
        0x00002c4c:    85a18dc1    ....    DCD    2241957313
        0x00002c50:    85618581    ..a.    DCD    2237760897
        0x00002c54:    5c807520     u.\    DCD    1551922464
        0x00002c58:    23c02be0    .+.#    DCD    599796704
        0x00002c5c:    2c202c00    ., ,    DCD    740305920
        0x00002c60:    3c233440    @4#<    DCD    1008940096
        0x00002c64:    dbdeb31a    ....    DCD    3688805146
        0x00002c68:    ec5fec1f    .._.    DCD    3965709343
        0x00002c6c:    ec3fec5f    _.?.    DCD    3963612255
        0x00002c70:    dc1ee41f    ....    DCD    3693011999
        0x00002c74:    ccc9cbbd    ....    DCD    3435776957
        0x00002c78:    e6e9ec1f    ....    DCD    3874090015
        0x00002c7c:    edd9ed98    ....    DCD    3990482328
        0x00002c80:    cbbcdbff    ....    DCD    3418151935
        0x00002c84:    bbbccb76    v...    DCD    3149712246
        0x00002c88:    52837462    bt.R    DCD    1384346722
        0x00002c8c:    65835ce4    .\.e    DCD    1703107812
        0x00002c90:    5d825d82    .].]    DCD    1568824706
        0x00002c94:    5d615d82    .]a]    DCD    1566662018
        0x00002c98:    55425541    AUBU    DCD    1430410561
        0x00002c9c:    4cc05501    .U.L    DCD    1287673089
        0x00002ca0:    3c203c40    @< <    DCD    1008745536
        0x00002ca4:    33e03c40    @<.3    DCD    870333504
        0x00002ca8:    2be033e0    .3.+    DCD    736113632
        0x00002cac:    2be02be0    .+.+    DCD    736111584
        0x00002cb0:    54232be0    .+#T    DCD    1411591136
        0x00002cb4:    3b605b20     [`;    DCD    996170528
        0x00002cb8:    8de17d41    A}..    DCD    2380365121
        0x00002cbc:    85c18de1    ....    DCD    2244054497
        0x00002cc0:    8de18dc1    ....    DCD    2380369345
        0x00002cc4:    85c18de1    ....    DCD    2244054497
        0x00002cc8:    858185a1    ....    DCD    2239858081
        0x00002ccc:    7d217d61    a}!}    DCD    2099346785
        0x00002cd0:    2c0064c1    .d.,    DCD    738223297
        0x00002cd4:    34602c20     ,`4    DCD    878717984
        0x00002cd8:    34213440    @4!4    DCD    874591296
        0x00002cdc:    cb7d634b    Kc}.    DCD    3413992267
        0x00002ce0:    e3dfe3df    ....    DCD    3823100895
        0x00002ce4:    ec1fe3ff    ....    DCD    3961512959
        0x00002ce8:    dbdeebff    ....    DCD    3688819711
        0x00002cec:    d472b2f9    ..r.    DCD    3564286713
        0x00002cf0:    de47e4d4    ..G.    DCD    3729253588
        0x00002cf4:    e3fde60e    ....    DCD    3825067534
        0x00002cf8:    d3bedbff    ....    DCD    3552500735
        0x00002cfc:    b37bcad3    ..{.    DCD    3011234515
        0x00002d00:    4a8284e3    ...J    DCD    1250067683
        0x00002d04:    65a46545    Ee.e    DCD    1705272645
        0x00002d08:    65835d82    .].e    DCD    1703107970
        0x00002d0c:    5d6265a3    .eb]    DCD    1566729635
        0x00002d10:    55225541    AU"U    DCD    1428313409
        0x00002d14:    3c204ca0    .L <    DCD    1008749728
        0x00002d18:    34203400    .4 4    DCD    874525696
        0x00002d1c:    34003400    .4.4    DCD    872428544
        0x00002d20:    2bc03400    .4.+    DCD    734016512
        0x00002d24:    2bc02ba0    .+.+    DCD    734014368
        0x00002d28:    5c432be0    .+C\    DCD    1547906016
        0x00002d2c:    75206b80    .k u    DCD    1965058944
        0x00002d30:    8de18dc0    ....    DCD    2380369344
        0x00002d34:    8de18de1    ....    DCD    2380369377
        0x00002d38:    8de29622    "...    DCD    2380437026
        0x00002d3c:    85a18dc2    ....    DCD    2241957314
        0x00002d40:    85828582    ....    DCD    2239923586
        0x00002d44:    85818561    a...    DCD    2239858017
        0x00002d48:    544074e1    .t@T    DCD    1413510369
        0x00002d4c:    34403420     4@4    DCD    876622880
        0x00002d50:    34413441    A4A4    DCD    876688449
        0x00002d54:    a2f63422    "4..    DCD    2734044194
        0x00002d58:    e3bfc35c    \...    DCD    3820995420
        0x00002d5c:    e39edb1d    ....    DCD    3818838813
        0x00002d60:    e3dfe39e    ....    DCD    3823100830
        0x00002d64:    d418586c    lX..    DCD    3558365292
        0x00002d68:    eec4e5e3    ....    DCD    4005881315
        0x00002d6c:    dbffd42d    -...    DCD    3690976301
        0x00002d70:    d39cd37d    }...    DCD    3550270333
        0x00002d74:    ab5ad3fd    ..Z.    DCD    2874856445
        0x00002d78:    5ae58d03    ...Z    DCD    1524993283
        0x00002d7c:    74aa8bf1    ...t    DCD    1957334001
        0x00002d80:    65a36583    .e.e    DCD    1705207171
        0x00002d84:    556165a3    .eaU    DCD    1432446371
        0x00002d88:    4cc05541    AU.L    DCD    1287673153
        0x00002d8c:    34003c20     <.4    DCD    872430624
        0x00002d90:    33e03400    .4.3    DCD    870331392
        0x00002d94:    340033e0    .3.4    DCD    872428512
        0x00002d98:    2ba033e0    .3.+    DCD    731919328
        0x00002d9c:    2be02bc0    .+.+    DCD    736111552
        0x00002da0:    5c223400    .4"\    DCD    1545745408
        0x00002da4:    85a06c60    `l..    DCD    2241883232
        0x00002da8:    8de18dc1    ....    DCD    2380369345
        0x00002dac:    8dc29602    ....    DCD    2378339842
        0x00002db0:    8dc28dc1    ....    DCD    2378337729
        0x00002db4:    8dc195e2    ....    DCD    2378274274
        0x00002db8:    8da28dc1    ....    DCD    2376240577
        0x00002dbc:    5c618561    a.a\    DCD    1549895009
        0x00002dc0:    22602a80    .*`"    DCD    576727680
        0x00002dc4:    34015440    @T.4    DCD    872502336
        0x00002dc8:    34412c00    .,A4    DCD    876686336
        0x00002dcc:    a3383c61    a<8.    DCD    2738371681
        0x00002dd0:    cbbdc3bc    ....    DCD    3418211260
        0x00002dd4:    e2dcdb1d    ....    DCD    3806124829
        0x00002dd8:    ebdedb1c    ....    DCD    3957250844
        0x00002ddc:    8a2bb2b6    ..+.    DCD    2318119606
        0x00002de0:    f6c5d523    #...    DCD    4140160291
        0x00002de4:    d3bcd4d3    ....    DCD    3552367827
        0x00002de8:    d210db9e    ....    DCD    3524320158
        0x00002dec:    8310cbde    ....    DCD    2198916062
        0x00002df0:    c35cabb4    ..\.    DCD    3277630388
        0x00002df4:    c33bcb5d    ].;.    DCD    3275475805
        0x00002df8:    65a38c10    ...e    DCD    1705217040
        0x00002dfc:    5d4165a2    .eA]    DCD    1564566946
        0x00002e00:    44605500    .U`D    DCD    1147163904
        0x00002e04:    34003400    .4.4    DCD    872428544
        0x00002e08:    33e03400    .4.3    DCD    870331392
        0x00002e0c:    33e033e0    .3.3    DCD    870331360
        0x00002e10:    2ba02bc0    .+.+    DCD    731917248
        0x00002e14:    33c02bc0    .+.3    DCD    868232128
        0x00002e18:    54033c00    .<.T    DCD    1409498112
        0x00002e1c:    85a07d80    .}..    DCD    2241887616
        0x00002e20:    96028de1    ....    DCD    2516749793
        0x00002e24:    8dc28da1    ....    DCD    2378337697
        0x00002e28:    96029602    ....    DCD    2516751874
        0x00002e2c:    95e29602    ....    DCD    2514654722
        0x00002e30:    8da28dc2    ....    DCD    2376240578
        0x00002e34:    1a607501    .u`.    DCD    442529025
        0x00002e38:    1a001a20     ...    DCD    436214304
        0x00002e3c:    64612260    `"ad    DCD    1684087392
        0x00002e40:    2bc03c01    .<.+    DCD    734018561
        0x00002e44:    b37c3441    A4|.    DCD    3011261505
        0x00002e48:    d3decbdd    ....    DCD    3554593757
        0x00002e4c:    dadbcbbd    ....    DCD    3671837629
        0x00002e50:    d299da59    Y...    DCD    3533298265
        0x00002e54:    a2ea79ad    .y..    DCD    2733275565
        0x00002e58:    dda2edc4    ....    DCD    3718442436
        0x00002e5c:    b278cb38    8.x.    DCD    2994260792
        0x00002e60:    ca96db39    9...    DCD    3398884153
        0x00002e64:    bb3ac33c    <.:.    DCD    3141190460
        0x00002e68:    dbded3de    ....    DCD    3688813534
        0x00002e6c:    c33bd37d    }.;.    DCD    3275477885
        0x00002e70:    6d46bb3b    ;.Fm    DCD    1833351995
        0x00002e74:    5d216582    .e!]    DCD    1562469762
        0x00002e78:    3c204ca0    .L <    DCD    1008749728
        0x00002e7c:    34003400    .4.4    DCD    872428544
        0x00002e80:    2be033e0    .3.+    DCD    736113632
        0x00002e84:    2ba02bc0    .+.+    DCD    731917248
        0x00002e88:    2ba02ba0    .+.+    DCD    731917216
        0x00002e8c:    3b802ba0    .+.;    DCD    998255520
        0x00002e90:    53223b00    .;"S    DCD    1394752256
        0x00002e94:    85c07d60    `}..    DCD    2243984736
        0x00002e98:    85a185a1    ....    DCD    2241955233
        0x00002e9c:    96028dc1    ....    DCD    2516749761
        0x00002ea0:    96029e02    ....    DCD    2516753922
        0x00002ea4:    95c295e2    ....    DCD    2512557538
        0x00002ea8:    8da295c2    ....    DCD    2376242626
        0x00002eac:    12202ae0    .* .    DCD    304098016
        0x00002eb0:    1a001a00    ....    DCD    436214272
        0x00002eb4:    2a8019e0    ...*    DCD    713038304
        0x00002eb8:    44227483    .t"D    DCD    1143108739
        0x00002ebc:    5ba93c42    B<.[    DCD    1537817666
        0x00002ec0:    d3decb9c    ....    DCD    3554593692
        0x00002ec4:    cb5bdbff    ..[.    DCD    3411794943
        0x00002ec8:    d1d7d259    Y...    DCD    3520582233
        0x00002ecc:    ab886949    Ii..    DCD    2877843785
        0x00002ed0:    f665edc4    ..e.    DCD    4133875140
        0x00002ed4:    8973dc90    ..s.    DCD    2306071696
        0x00002ed8:    b2bae22f    /...    DCD    2998592047
        0x00002edc:    d3bac2fb    ....    DCD    3552232187
        0x00002ee0:    e41fec1f    ....    DCD    3827297311
        0x00002ee4:    d39dd39d    ....    DCD    3550335901
        0x00002ee8:    9430c35b    [.0.    DCD    2486223707
        0x00002eec:    5cc06582    .e.\    DCD    1556112770
        0x00002ef0:    3c004440    @D.<    DCD    1006650432
        0x00002ef4:    33e033e0    .3.3    DCD    870331360
        0x00002ef8:    2ba02bc0    .+.+    DCD    731917248
        0x00002efc:    2b802b80    .+.+    DCD    729820032
        0x00002f00:    33a033a0    .3.3    DCD    866136992
        0x00002f04:    32402300    .#@2    DCD    843064064
        0x00002f08:    3a0031c0    .1.:    DCD    973091264
        0x00002f0c:    7d817d60    `}.}    DCD    2105638240
        0x00002f10:    8da18581    ....    DCD    2376172929
        0x00002f14:    95e28dc2    ....    DCD    2514652610
        0x00002f18:    9e0395e2    ....    DCD    2651035106
        0x00002f1c:    8dc295e2    ....    DCD    2378339810
        0x00002f20:    85a295c2    ....    DCD    2242024898
        0x00002f24:    1a201a40    @. .    DCD    438311488
        0x00002f28:    12001a20     ...    DCD    301996576
        0x00002f2c:    11e019e0    ....    DCD    299899360
        0x00002f30:    74832aa0    .*.t    DCD    1954753184
        0x00002f34:    4be44bc1    .K.K    DCD    1273252801
        0x00002f38:    dbdebb5a    Z...    DCD    3688807258
        0x00002f3c:    d39de3ff    ....    DCD    3550340095
        0x00002f40:    d1d7bad8    ....    DCD    3520576216
        0x00002f44:    bbe48127    '...    DCD    3152314663
        0x00002f48:    c2b0e5a5    ....    DCD    3266373029
        0x00002f4c:    da0fcc4c    L...    DCD    3658468428
        0x00002f50:    c35bbbb6    ..[.    DCD    3277568950
        0x00002f54:    cb55e3ff    ..U.    DCD    3411403775
        0x00002f58:    e3ffec5f    _...    DCD    3825200223
        0x00002f5c:    d3dedbfe    ....    DCD    3554597886
        0x00002f60:    b399c33b    ;...    DCD    3013198651
        0x00002f64:    44606561    ae`D    DCD    1147168097
        0x00002f68:    33e03c20     <.3    DCD    870333472
        0x00002f6c:    2bc02bc0    .+.+    DCD    734014400
        0x00002f70:    2b602b80    .+`+    DCD    727722880
        0x00002f74:    33803bc0    .;.3    DCD    864041920
        0x00002f78:    2a803320     3.*    DCD    713044768
        0x00002f7c:    29c019a0    ...)    DCD    700455328
        0x00002f80:    19203180    .1 .    DCD    421540224
        0x00002f84:    7d607d62    b}`}    DCD    2103475554
        0x00002f88:    8dc28da2    ....    DCD    2378337698
        0x00002f8c:    95e295e2    ....    DCD    2514654690
        0x00002f90:    95e28dc2    ....    DCD    2514652610
        0x00002f94:    95a29dc4    ....    DCD    2510462404
        0x00002f98:    85a295c3    ....    DCD    2242024899
        0x00002f9c:    1a401a40    @.@.    DCD    440408640
        0x00002fa0:    12001a20     ...    DCD    301996576
        0x00002fa4:    11e029c0    .)..    DCD    299903424
        0x00002fa8:    4ba11a00    ...K    DCD    1268849152
        0x00002fac:    2a6032a0    .2`*    DCD    710947488
        0x00002fb0:    dbbecbdc    ....    DCD    3686714332
        0x00002fb4:    e3ffec1f    ....    DCD    3825200159
        0x00002fb8:    ca58bb18    ..X.    DCD    3394812696
        0x00002fbc:    b3849128    (...    DCD    3011809576
        0x00002fc0:    d487c3e5    ....    DCD    3565667301
        0x00002fc4:    c250d3c8    ..P.    DCD    3260077000
        0x00002fc8:    dbbdcbb9    ....    DCD    3686648761
        0x00002fcc:    c2b3bad7    ....    DCD    3266558679
        0x00002fd0:    ec5ff43f    ?._.    DCD    3965711423
        0x00002fd4:    dbfee43f    ?...    DCD    3690914879
        0x00002fd8:    c3bcd3fd    ....    DCD    3283932157
        0x00002fdc:    3c205ce1    .\ <    DCD    1008753889
        0x00002fe0:    33a03c00    .<.3    DCD    866139136
        0x00002fe4:    2b602b80    .+`+    DCD    727722880
        0x00002fe8:    2b402b40    @+@+    DCD    725625664
        0x00002fec:    43834be2    .K.C    DCD    1132678114
        0x00002ff0:    21603240    @2`!    DCD    559952448
        0x00002ff4:    31e01940    @..1    DCD    836770112
        0x00002ff8:    110029a0    .)..    DCD    285223328
        0x00002ffc:    7d817d61    a}.}    DCD    2105638241
        0x00003000:    95c38dc2    ....    DCD    2512620994
        0x00003004:    8da295e3    ....    DCD    2376242659
        0x00003008:    8dc28dc2    ....    DCD    2378337730
        0x0000300c:    960295a3    ....    DCD    2516751779
        0x00003010:    8de19603    ....    DCD    2380371459
        0x00003014:    1a2022a0    ." .    DCD    438313632
        0x00003018:    1a001a00    ....    DCD    436214272
        0x0000301c:    11e029a0    .)..    DCD    299903392
        0x00003020:    11e01a00    ....    DCD    299899392
        0x00003024:    21c03ae2    .:.!    DCD    566246114
        0x00003028:    e41fc37b    {...    DCD    3827286907
        0x0000302c:    ec1febde    ....    DCD    3961514974
        0x00003030:    c2b8e3bf    ....    DCD    3266896831
        0x00003034:    b384a149    I...    DCD    3011813705
        0x00003038:    c3e7bbe4    ....    DCD    3286744036
        0x0000303c:    d258ca8c    ..X.    DCD    3529034380
        0x00003040:    c3b1f518    ....    DCD    3283219736
        0x00003044:    f41f8069    i...    DCD    4095705193
        0x00003048:    ec7ff47f    ....    DCD    3967808639
        0x0000304c:    dc1ee43f    ?...    DCD    3693012031
        0x00003050:    d3fdd3fe    ....    DCD    3556627454
        0x00003054:    3be1728e    .r.;    DCD    1004630670
        0x00003058:    2b8033e0    .3.+    DCD    729822176
        0x0000305c:    2b202b40    @+ +    DCD    723528512
        0x00003060:    2aa02b00    .+.*    DCD    715139840
        0x00003064:    4bc54ba3    .K.K    DCD    1271221155
        0x00003068:    19203241    A2 .    DCD    421540417
        0x0000306c:    29c01920     ..)    DCD    700455200
        0x00003070:    10e02180    .!..    DCD    283124096
        0x00003074:    8da28581    ....    DCD    2376238465
        0x00003078:    95c395c3    ....    DCD    2512623043
        0x0000307c:    85c195c2    ....    DCD    2244056514
        0x00003080:    8dc38de3    ....    DCD    2378403299
        0x00003084:    8d638d83    ..c.    DCD    2372111747
        0x00003088:    7d228563    c."}    DCD    2099414371
        0x0000308c:    1a205421    !T .    DCD    438326305
        0x00003090:    11e01200    ....    DCD    299897344
        0x00003094:    11e019c0    ....    DCD    299899328
        0x00003098:    11c011e0    ....    DCD    297800160
        0x0000309c:    29c22220     ".)    DCD    700588576
        0x000030a0:    e43fcbbc    ..?.    DCD    3829386172
        0x000030a4:    ebdef45f    _...    DCD    3957257311
        0x000030a8:    d33cebbf    ..<.    DCD    3543985087
        0x000030ac:    b445a1e7    ..E.    DCD    3024462311
        0x000030b0:    ca88d466    f...    DCD    3397964902
        0x000030b4:    bab9a3aa    ....    DCD    3132728234
        0x000030b8:    caf7db1b    ....    DCD    3405241115
        0x000030bc:    fc9fcab7    ....    DCD    4238330551
        0x000030c0:    ec7ff47f    ....    DCD    3967808639
        0x000030c4:    e41fe43f    ?...    DCD    3827295295
        0x000030c8:    c3bddc5f    _...    DCD    3283999839
        0x000030cc:    83517993    .yQ.    DCD    2203154835
        0x000030d0:    2b4033a0    .3@+    DCD    725627808
        0x000030d4:    2a802b00    .+.*    DCD    713042688
        0x000030d8:    19e02a60    `*..    DCD    434121312
        0x000030dc:    53e632e1    .2.S    DCD    1407595233
        0x000030e0:    10c03aa3    .:..    DCD    281033379
        0x000030e4:    196010e0    ..`.    DCD    425726176
        0x000030e8:    19401980    ..@.    DCD    423631232
        0x000030ec:    8da28da2    ....    DCD    2376240546
        0x000030f0:    8dc395e3    ....    DCD    2378405347
        0x000030f4:    85438da3    ..C.    DCD    2235796899
        0x000030f8:    85438542    B.C.    DCD    2235794754
        0x000030fc:    85438543    C.C.    DCD    2235794755
        0x00003100:    7d238543    C.#}    DCD    2099479875
        0x00003104:    4bc17503    .u.K    DCD    1270969603
        0x00003108:    11e01a20     ...    DCD    299899424
        0x0000310c:    11c011e0    ....    DCD    297800160
        0x00003110:    11c011c0    ....    DCD    297800128
        0x00003114:    729011c0    ...r    DCD    1922044352
        0x00003118:    ec1fcbbd    ....    DCD    3961506749
        0x0000311c:    f43fec1f    ..?.    DCD    4097829919
        0x00003120:    d238e31d    ..8.    DCD    3526943517
        0x00003124:    ac05b9d1    ....    DCD    2886056401
        0x00003128:    b2c8d469    i...    DCD    2999506025
        0x0000312c:    682a912b    +.*h    DCD    1747620139
        0x00003130:    e33d9111    ..=.    DCD    3812462865
        0x00003134:    f47ff3ff    ....    DCD    4102026239
        0x00003138:    ec3ff49f    ..?.    DCD    3963614367
        0x0000313c:    ec7fe43f    ?...    DCD    3967804479
        0x00003140:    58f0e43f    ?..X    DCD    1492182079
        0x00003144:    7b529278    x.R{    DCD    2069009016
        0x00003148:    22e02b40    @+."    DCD    585116480
        0x0000314c:    21a02200    .".!    DCD    564142592
        0x00003150:    19c02200    ."..    DCD    432022016
        0x00003154:    63a62a20     *.c    DCD    1671834144
        0x00003158:    18c04aa4    .J..    DCD    415255204
        0x0000315c:    110010e0    ....    DCD    285216992
        0x00003160:    21e01980    ...!    DCD    568334720
        0x00003164:    8de395e2    ....    DCD    2380502498
        0x00003168:    7d227d23    #}"}    DCD    2099412259
        0x0000316c:    85428523    #.B.    DCD    2235729187
        0x00003170:    85428563    c.B.    DCD    2235729251
        0x00003174:    85428563    c.B.    DCD    2235729251
        0x00003178:    7d247d43    C}$}    DCD    2099543363
        0x0000317c:    75237d23    #}#u    DCD    1965260067
        0x00003180:    1a005421    !T..    DCD    436229153
        0x00003184:    11c011c0    ....    DCD    297800128
        0x00003188:    19c011a0    ....    DCD    432017824
        0x0000318c:    ab7829e0    .)x.    DCD    2876778976
        0x00003190:    e3ffcbbd    ....    DCD    3825191869
        0x00003194:    eb5eebde    ..^.    DCD    3948866526
        0x00003198:    d218e29b    ....    DCD    3524846235
        0x0000319c:    baacc133    3...    DCD    3131883827
        0x000031a0:    c2eacce8    ....    DCD    3270167784
        0x000031a4:    b953d173    s.S.    DCD    3109278067
        0x000031a8:    dafba112    ....    DCD    3673923858
        0x000031ac:    f3ffeb3d    =...    DCD    4093635389
        0x000031b0:    ec5ff43f    ?._.    DCD    3965711423
        0x000031b4:    ec1fec3f    ?...    DCD    3961515071
        0x000031b8:    81b4cb7c    |...    DCD    2176109436
        0x000031bc:    62edc3bd    ...b    DCD    1659749309
        0x000031c0:    2a602320     #`*    DCD    710943520
        0x000031c4:    11201100    .. .    DCD    287314176
        0x000031c8:    19e01160    `...    DCD    434114912
        0x000031cc:    73663a81    .:fs    DCD    1936079489
        0x000031d0:    392062e4    .b 9    DCD    958423780
        0x000031d4:    29602900    .)`)    DCD    694167808
        0x000031d8:    2a8021a0    .!.*    DCD    713040288
        0x000031dc:    7d217501    .u!}    DCD    2099344641
        0x000031e0:    85637d42    B}c.    DCD    2237889858
        0x000031e4:    85618582    ..a.    DCD    2237760898
        0x000031e8:    7d427501    .uB}    DCD    2101507329
        0x000031ec:    85627d62    b}b.    DCD    2237824354
        0x000031f0:    85637d42    B}c.    DCD    2237889858
        0x000031f4:    75037d23    #}.u    DCD    1963162915
        0x000031f8:    54417502    .uAT    DCD    1413575938
        0x000031fc:    19c011c0    ....    DCD    432017856
        0x00003200:    4ac33220     2.J    DCD    1254306336
        0x00003204:    b3b95b24    $[..    DCD    3015269156
        0x00003208:    e43fd41e    ..?.    DCD    3829388318
        0x0000320c:    f3dfec1f    ....    DCD    4091538463
        0x00003210:    e27ae2bc    ..z.    DCD    3799704252
        0x00003214:    b9f5c155    U...    DCD    3119890773
        0x00003218:    cbacb425    %...    DCD    3417093157
        0x0000321c:    a9d1bbad    ....    DCD    2849094573
        0x00003220:    d2dad2ba    ....    DCD    3537556154
        0x00003224:    f39ff37e    ~...    DCD    4087346046
        0x00003228:    ec1fec1f    ....    DCD    3961515039
        0x0000322c:    cb9de41f    ....    DCD    3416122399
        0x00003230:    cb9eaaf9    ....    DCD    3416173305
        0x00003234:    32a4b33b    ;..2    DCD    849654587
        0x00003238:    3a2122e0    ."!:    DCD    975250144
        0x0000323c:    09002100    .!..    DCD    151003392
        0x00003240:    22a00920     .."    DCD    580913440
        0x00003244:    73655361    aSes    DCD    1936020321
        0x00003248:    396062a3    .b`9    DCD    962618019
        0x0000324c:    31c03920     9.1    DCD    834681120
        0x00003250:    3b2129a0    .)!;    DCD    992029088
        0x00003254:    7d617521    !ua}    DCD    2103538977
        0x00003258:    85628562    b.b.    DCD    2237826402
        0x0000325c:    85817d81    .}..    DCD    2239856001
        0x00003260:    7d627d62    b}b}    DCD    2103606626
        0x00003264:    85837d62    b}..    DCD    2239987042
        0x00003268:    85628582    ..b.    DCD    2237826434
        0x0000326c:    7d048543    C..}    DCD    2097448259
        0x00003270:    22406463    cd@"    DCD    574645347
        0x00003274:    326119a0    ..a2    DCD    845224352
        0x00003278:    428242c2    .B.B    DCD    1115833026
        0x0000327c:    a37542c1    .Bu.    DCD    2742371009
        0x00003280:    e3ffd3fe    ....    DCD    3825193982
        0x00003284:    f3dfebdf    ....    DCD    4091538399
        0x00003288:    e31df3df    ....    DCD    3810391007
        0x0000328c:    ca99db1b    ....    DCD    3399080731
        0x00003290:    b8eec429    )...    DCD    3102655529
        0x00003294:    c44fc270    p.O.    DCD    3293561456
        0x00003298:    cafcb2d4    ....    DCD    3405558484
        0x0000329c:    e37ed31b    ..~.    DCD    3816739611
        0x000032a0:    dbffebdf    ....    DCD    3690982367
        0x000032a4:    c3bccb7c    |...    DCD    3283929980
        0x000032a8:    c3fdcb9d    ....    DCD    3288189853
        0x000032ac:    0a4072d2    .r@.    DCD    171995858
        0x000032b0:    39c01a40    @..9    DCD    968890944
        0x000032b4:    11003140    @1..    DCD    285225280
        0x000032b8:    33411100    ..A3    DCD    859902208
        0x000032bc:    5b235c23    #\#[    DCD    1529044003
        0x000032c0:    31804a41    AJ.1    DCD    830491201
        0x000032c4:    31e02920     ).1    DCD    836774176
        0x000032c8:    4c033200    .2.L    DCD    1275277824
        0x000032cc:    85c27d82    .}..    DCD    2244115842
        0x000032d0:    85a285a2    ....    DCD    2242020770
        0x000032d4:    85a28dc2    ....    DCD    2242022850
        0x000032d8:    85a285a2    ....    DCD    2242020770
        0x000032dc:    7d437d62    b}C}    DCD    2101575010
        0x000032e0:    95847d23    #}..    DCD    2508487971
        0x000032e4:    b686ae46    F...    DCD    3062279750
        0x000032e8:    21e09564    d..!    DCD    568366436
        0x000032ec:    22001180    ..."    DCD    570429824
        0x000032f0:    3a412a40    @*A:    DCD    977349184
        0x000032f4:    6ae932a0    .2.j    DCD    1793667744
        0x000032f8:    d39ec37c    |...    DCD    3550397308
        0x000032fc:    f41febff    ....    DCD    4095732735
        0x00003300:    ebbfe35e    ^...    DCD    3955221342
        0x00003304:    cafadb7d    }...    DCD    3405437821
        0x00003308:    b975abac    ..u.    DCD    3111496620
        0x0000330c:    d2dac0f2    ....    DCD    3537551602
        0x00003310:    a2b3c358    X...    DCD    2729689944
        0x00003314:    c2fac2fa    ....    DCD    3271213818
        0x00003318:    bb5bbb5a    Z.[.    DCD    3143351130
        0x0000331c:    c39cc37d    }...    DCD    3281830781
        0x00003320:    7ad3bb9b    ...z    DCD    2060696475
        0x00003324:    02001221    !...    DCD    33559073
        0x00003328:    292011a0    .. )    DCD    689967520
        0x0000332c:    18c02920     )..    DCD    415246624
        0x00003330:    43c31120     ..C    DCD    1136857376
        0x00003334:    32605464    dT`2    DCD    845173860
        0x00003338:    2a002a00    .*.*    DCD    704653824
        0x0000333c:    29e01940    @..)    DCD    702552384
        0x00003340:    4be32a00    .*.K    DCD    1273178624
        0x00003344:    96249645    E.$.    DCD    2518980165
        0x00003348:    85a48de4    ....    DCD    2242153956
        0x0000334c:    6d017563    cu.m    DCD    1828812131
        0x00003350:    64c164e1    .d.d    DCD    1690395873
        0x00003354:    6ca364c2    .d.l    DCD    1822647490
        0x00003358:    9e0195c1    ....    DCD    2650904001
        0x0000335c:    bec5ae82    ....    DCD    3200626306
        0x00003360:    b645c707    ..E.    DCD    3058026247
        0x00003364:    11e01a40    @...    DCD    299899456
        0x00003368:    21e011c0    ...!    DCD    568332736
        0x0000336c:    43202ac0    .* C    DCD    1126181568
        0x00003370:    bb9cab16    ....    DCD    3147606806
        0x00003374:    e3bfdbfe    ....    DCD    3821001726
        0x00003378:    db5ddb9f    ..].    DCD    3680361375
        0x0000337c:    c31ad37c    |...    DCD    3273315196
        0x00003380:    c2fa9a4f    O...    DCD    3271203407
        0x00003384:    d218b8d3    ....    DCD    3524835539
        0x00003388:    d39ce3be    ....    DCD    3550274494
        0x0000338c:    cb1c9274    t...    DCD    3407647348
        0x00003390:    bb1acbbc    ....    DCD    3139095484
        0x00003394:    b35ab33a    :.Z.    DCD    3009065786
        0x00003398:    0a204208    .B .    DCD    169886216
        0x0000339c:    09e00a20     ...    DCD    165677600
        0x000033a0:    10a00940    @...    DCD    278923584
        0x000033a4:    10c020c0    . ..    DCD    281026752
        0x000033a8:    43c31120     ..C    DCD    1136857376
        0x000033ac:    22005465    eT."    DCD    570446949
        0x000033b0:    32c02220     ".2    DCD    851452448
        0x000033b4:    11c02240    @"..    DCD    297804352
        0x000033b8:    3b411160    `.A;    DCD    994120032
        0x000033bc:    75617d81    .}au    DCD    1969323393
        0x000033c0:    75417541    AuAu    DCD    1967224129
        0x000033c4:    85247502    .u$.    DCD    2233758978
        0x000033c8:    7d037d22    "}.}    DCD    2097380642
        0x000033cc:    7d607ca4    .|`}    DCD    2103475364
        0x000033d0:    a64395c1    ..C.    DCD    2789447105
        0x000033d4:    c709aec5    ....    DCD    3339300549
        0x000033d8:    c707c708    ....    DCD    3339175688
        0x000033dc:    3a819565    e..:    DCD    981570917
        0x000033e0:    3aa13a61    a:.:    DCD    983644769
        0x000033e4:    4b603b20     ;`K    DCD    1264597792
        0x000033e8:    bb5a7304    .sZ.    DCD    3143267076
        0x000033ec:    c33bc39c    ..;.    DCD    3275473820
        0x000033f0:    c2facb5c    \...    DCD    3271215964
        0x000033f4:    c37bcb7c    |.{.    DCD    3279670140
        0x000033f8:    d31cbaf9    ....    DCD    3541875449
        0x000033fc:    d1f8c9b7    ....    DCD    3522742711
        0x00003400:    dbbee3be    ....    DCD    3686720446
        0x00003404:    8ad2c39b    ....    DCD    2329068443
        0x00003408:    6b4b9a55    U.Kk    DCD    1800116821
        0x0000340c:    4384738c    .s.C    DCD    1132753804
        0x00003410:    23000a20     ..#    DCD    587205152
        0x00003414:    12003bc0    .;..    DCD    302005184
        0x00003418:    08800900    ....    DCD    142608640
        0x0000341c:    08800860    `...    DCD    142608480
        0x00003420:    3b6210e0    ..b;    DCD    996282592
        0x00003424:    2a005466    fT.*    DCD    704664678
        0x00003428:    2ac019c0    ...*    DCD    717232576
        0x0000342c:    19e02aa0    .*..    DCD    434121376
        0x00003430:    29e010c0    ...)    DCD    702550208
        0x00003434:    63e17c81    .|.c    DCD    1675721857
        0x00003438:    6b426ba2    .kBk    DCD    1799515042
        0x0000343c:    5a605a40    @Z`Z    DCD    1516264000
        0x00003440:    636162c0    .bac    DCD    1667326656
        0x00003444:    75026c82    .l.u    DCD    1963093122
        0x00003448:    8da28582    ....    DCD    2376238466
        0x0000344c:    b6c59e63    c...    DCD    3066404451
        0x00003450:    c708bf07    ....    DCD    3339239175
        0x00003454:    6363c6c7    ..cc    DCD    1667483335
        0x00003458:    63c56b85    .k.c    DCD    1673882501
        0x0000345c:    5b025ba4    .[.[    DCD    1526881188
        0x00003460:    9bca7303    .s..    DCD    2613736195
        0x00003464:    c37cc37c    |.|.    DCD    3279733628
        0x00003468:    c35bc35b    [.[.    DCD    3277570907
        0x0000346c:    bb5bc35b    [.[.    DCD    3143353179
        0x00003470:    cb7cbb1b    ..|.    DCD    3413949211
        0x00003474:    da5aca79    y.Z.    DCD    3663383161
        0x00003478:    ebdfeb7e    ~...    DCD    3957320574
        0x0000347c:    cbdddb9e    ....    DCD    3420314526
        0x00003480:    6c4abb3a    :.Jl    DCD    1816836922
        0x00003484:    43c15ce3    .\.C    DCD    1136745699
        0x00003488:    5ce433a0    .3.\    DCD    1558459296
        0x0000348c:    11805c62    b\..    DCD    293624930
        0x00003490:    08a00920     ...    DCD    144705824
        0x00003494:    08400040    @.@.    DCD    138412096
        0x00003498:    2aa008a0    ...*    DCD    715131040
        0x0000349c:    32605444    DT`2    DCD    845173828
        0x000034a0:    22002160    `!."    DCD    570433888
        0x000034a4:    21e02a60    `*.!    DCD    568339040
        0x000034a8:    20e018c0    ...     DCD    551557312
        0x000034ac:    21404a40    @J@!    DCD    557861440
        0x000034b0:    41a02160    `!.A    DCD    1101013344
        0x000034b4:    63e249a0    .I.c    DCD    1675774368
        0x000034b8:    7da36d02    .m.}    DCD    2107862274
        0x000034bc:    85e48dc4    ....    DCD    2246348228
        0x000034c0:    7d8385c3    ...}    DCD    2105771459
        0x000034c4:    9e437522    "uC.    DCD    2655221026
        0x000034c8:    bf08b6e5    ....    DCD    3205019365
        0x000034cc:    84a4c708    ....    DCD    2225391368
        0x000034d0:    74267406    .t&t    DCD    1948677126
        0x000034d4:    730473e6    .s.s    DCD    1929671654
        0x000034d8:    a4067325    %s..    DCD    2751886117
        0x000034dc:    cb9d9b15    ....    DCD    3416103701
        0x000034e0:    d39ecbbd    ....    DCD    3550399421
        0x000034e4:    bb1ac35c    \...    DCD    3139093340
        0x000034e8:    c39cb2fb    ....    DCD    3281826555
        0x000034ec:    eb5ed31b    ..^.    DCD    3948860187
        0x000034f0:    ebbef39e    ....    DCD    3955159966
        0x000034f4:    dbdee3df    ....    DCD    3688817631
        0x000034f8:    c35cd39e    ..\.    DCD    3277640606
        0x000034fc:    644373e7    .sCd    DCD    1682142183
        0x00003500:    7da66524    $e.}    DCD    2108056868
        0x00003504:    08e053c2    .S..    DCD    148919234
        0x00003508:    09000920     ...    DCD    150997280
        0x0000350c:    08400860    `.@.    DCD    138414176
        0x00003510:    21e00860    `..!    DCD    568330336
        0x00003514:    3aa04402    .D.:    DCD    983581698
        0x00003518:    21402120     !@!    DCD    557850912
        0x0000351c:    29c02a00    .*.)    DCD    700459520
        0x00003520:    20c02100    .!.     DCD    549462272
        0x00003524:    4ba14280    .B.K    DCD    1268859520
        0x00003528:    74245c81    .\$t    DCD    1948540033
        0x0000352c:    6be37304    .s.k    DCD    1810068228
        0x00003530:    75036d03    .m.u    DCD    1963158787
        0x00003534:    7d617d42    B}a}    DCD    2103541058
        0x00003538:    7d427d81    .}B}    DCD    2101509505
        0x0000353c:    74e27d42    B}.t    DCD    1961000258
        0x00003540:    b6c5aea4    ....    DCD    3066408612
        0x00003544:    ae46bee7    ..F.    DCD    2923871975
        0x00003548:    74275b02    .['t    DCD    1948736258
        0x0000354c:    7b457407    .tE{    DCD    2068149255
        0x00003550:    94067b45    E{..    DCD    2483452741
        0x00003554:    89f25283    .R..    DCD    2314359427
        0x00003558:    c39cc39c    ....    DCD    3281830812
        0x0000355c:    8a33c37c    |.3.    DCD    2318648188
        0x00003560:    c3dc91f6    ....    DCD    3286012406
        0x00003564:    f39ecb5c    \...    DCD    4087270236
        0x00003568:    f45ff3bf    .._.    DCD    4099929023
        0x0000356c:    e3dfe3bf    ....    DCD    3823100863
        0x00003570:    cb7dd3be    ..}.    DCD    3414021054
        0x00003574:    74a5b31a    ...t    DCD    1957016346
        0x00003578:    6cc57586    .u.l    DCD    1824880006
        0x0000357c:    090042a1    .B..    DCD    151012001
        0x00003580:    11a01140    @...    DCD    295702848
        0x00003584:    00401100    ..@.    DCD    4198656
        0x00003588:    21600860    `.`!    DCD    559941728
        0x0000358c:    43003b80    .;.C    DCD    1124088704
        0x00003590:    296031a0    .1`)    DCD    694170016
        0x00003594:    29a021c0    .!.)    DCD    698360256
        0x00003598:    18a02900    .)..    DCD    413149440
        0x0000359c:    75626d41    Ambu    DCD    1969384769
        0x000035a0:    6ba47da2    .}.k    DCD    1805942178
        0x000035a4:    75427c46    F|Bu    DCD    1967291462
        0x000035a8:    7d627561    aub}    DCD    2103604577
        0x000035ac:    8da28581    ....    DCD    2376238465
        0x000035b0:    85a18dc2    ....    DCD    2241957314
        0x000035b4:    85628da2    ..b.    DCD    2237828514
        0x000035b8:    b6e695a4    ....    DCD    3068564900
        0x000035bc:    bea6bec5    ....    DCD    3198598853
        0x000035c0:    5b235b20     [#[    DCD    1529043744
        0x000035c4:    7b2573e7    .s%{    DCD    2066052071
        0x000035c8:    94267325    %s&.    DCD    2485547813
        0x000035cc:    40a062e3    .b.@    DCD    1084252899
        0x000035d0:    927371cb    .qs.    DCD    2457039307
        0x000035d4:    49806a2c    ,j.I    DCD    1233152556
        0x000035d8:    bb7d8231    1.}.    DCD    3145564721
        0x000035dc:    eb7ec39c    ..~.    DCD    3950953372
        0x000035e0:    f41ff3bf    ....    DCD    4095734719
        0x000035e4:    e3dfec1f    ....    DCD    3823103007
        0x000035e8:    cb7ddb9e    ..}.    DCD    3414023070
        0x000035ec:    842bc35c    \.+.    DCD    2217460572
        0x000035f0:    4ac26ca4    .l.J    DCD    1254255780
        0x000035f4:    19404261    aB@.    DCD    423641697
        0x000035f8:    2a801960    `..*    DCD    713038176
        0x000035fc:    08402220     "@.    DCD    138420768
        0x00003600:    29401880    ..@)    DCD    692066432
        0x00003604:    43003300    .3.C    DCD    1124086528
        0x00003608:    31c039e0    .9.1    DCD    834681312
        0x0000360c:    294029e0    .)@)    DCD    692070880
        0x00003610:    18a03100    .1..    DCD    413151488
        0x00003614:    7d657da2    .}e}    DCD    2103803298
        0x00003618:    32426c66    flB2    DCD    843213926
        0x0000361c:    85c28d83    ....    DCD    2244119939
        0x00003620:    85a185c2    ....    DCD    2241955266
        0x00003624:    8dc28dc2    ....    DCD    2378337730
        0x00003628:    95e395e2    ....    DCD    2514720226
        0x0000362c:    7d238583    ..#}    DCD    2099479939
        0x00003630:    b6887cc3    .|..    DCD    3062398147
        0x00003634:    bee7bee7    ....    DCD    3202858727
        0x00003638:    4a808ce2    ...J    DCD    1249938658
        0x0000363c:    730562e3    .b.s    DCD    1929732835
        0x00003640:    944762e4    .bG.    DCD    2487706340
        0x00003644:    48c08b87    ...H    DCD    1220578183
        0x00003648:    312040a0    .@ 1    DCD    824197280
        0x0000364c:    490041a0    .A.I    DCD    1224753568
        0x00003650:    9a573200    .2W.    DCD    2589405696
        0x00003654:    db5ecbdd    ..^.    DCD    3680422877
        0x00003658:    f3dff3bf    ....    DCD    4091540415
        0x0000365c:    e3ffec1f    ....    DCD    3825200159
        0x00003660:    cb3cd39d    ..<.    DCD    3409761181
        0x00003664:    a374cb5d    ].t.    DCD    2742340445
        0x00003668:    29a063a3    .c.)    DCD    698377123
        0x0000366c:    29a04241    AB.)    DCD    698368577
        0x00003670:    3b002160    `!.;    DCD    989864288
        0x00003674:    08a03b20     ;..    DCD    144718624
        0x00003678:    396020a0    . `9    DCD    962601120
        0x0000367c:    32c02a60    `*.2    DCD    851454560
        0x00003680:    3a002980    .).:    DCD    973089152
        0x00003684:    20e031c0    .1.     DCD    551563712
        0x00003688:    20c030e0    .0.     DCD    549466336
        0x0000368c:    6d217c86    .|!m    DCD    1830911110
        0x00003690:    95268cc7    ..&.    DCD    2502331591
        0x00003694:    85c28de3    ....    DCD    2244120035
        0x00003698:    8e0285c1    ....    DCD    2382529985
        0x0000369c:    85819e04    ....    DCD    2239864324
        0x000036a0:    7d227d61    a}"}    DCD    2099412321
        0x000036a4:    75027d43    C}.u    DCD    1963097411
        0x000036a8:    7ca474e2    .t.|    DCD    2091152610
        0x000036ac:    c6e9b6a7    ....    DCD    3337205415
        0x000036b0:    73c1c6e8    ...s    DCD    1942079208
        0x000036b4:    51c15200    .R.Q    DCD    1371623936
        0x000036b8:    8c464a42    BJF.    DCD    2353416770
        0x000036bc:    40a0a449    I..@    DCD    1084269641
        0x000036c0:    49014080    .@.I    DCD    1224818816
        0x000036c4:    418048e0    .H.A    DCD    1098926304
        0x000036c8:    5a884c80    .L.Z    DCD    1518881920
        0x000036cc:    cbddc3bd    ....    DCD    3420308413
        0x000036d0:    ec1febdf    ....    DCD    3961514975
        0x000036d4:    dbdee3df    ....    DCD    3688817631
        0x000036d8:    badbd37d    }...    DCD    3134968701
        0x000036dc:    a316c33c    <...    DCD    2736177980
        0x000036e0:    3a406383    .c@:    DCD    977298307
        0x000036e4:    31e04241    AB.1    DCD    836780609
        0x000036e8:    4b602160    `!`K    DCD    1264591200
        0x000036ec:    19a04be0    .K..    DCD    429935584
        0x000036f0:    498128e0    .(.I    DCD    1233201376
        0x000036f4:    22202a00    .* "    DCD    572533248
        0x000036f8:    31e02160    `!.1    DCD    836772192
        0x000036fc:    18a02980    .)..    DCD    413149568
        0x00003700:    20c028c0    .(.     DCD    549464256
        0x00003704:    8de47c65    e|..    DCD    2380561509
        0x00003708:    9e459625    %.E.    DCD    2655360549
        0x0000370c:    96249624    $.$.    DCD    2518980132
        0x00003710:    85a285c2    ....    DCD    2242020802
        0x00003714:    7d617d41    A}a}    DCD    2103541057
        0x00003718:    75427542    BuBu    DCD    1967289666
        0x0000371c:    7d227d42    B}"}    DCD    2099412290
        0x00003720:    74a474e2    .t.t    DCD    1956934882
        0x00003724:    9dc49de4    ....    DCD    2646908388
        0x00003728:    a5a6a605    ....    DCD    2779162117
        0x0000372c:    51a15280    .R.Q    DCD    1369526912
        0x00003730:    73643860    `8ds    DCD    1935947872
        0x00003734:    48808ba6    ...H    DCD    1216383910
        0x00003738:    38403840    @8@8    DCD    943732800
        0x0000373c:    12203080    .0 .    DCD    304099456
        0x00003740:    4cc04460    `D.L    DCD    1287668832
        0x00003744:    d3de728e    .r..    DCD    3554570894
        0x00003748:    e3bfd3be    ....    DCD    3820999614
        0x0000374c:    d37ddbdf    ..}.    DCD    3548240863
        0x00003750:    cb5ccb7d    }.\.    DCD    3411856253
        0x00003754:    ab18bafb    ....    DCD    2870524667
        0x00003758:    4ae17405    .t.J    DCD    1256289285
        0x0000375c:    39e04242    BB.9    DCD    970998338
        0x00003760:    5bc131e0    .1.[    DCD    1539387872
        0x00003764:    42e06442    Bd.B    DCD    1122001986
        0x00003768:    49a23120     1.I    DCD    1235366176
        0x0000376c:    21c021a0    .!.!    DCD    566239648
        0x00003770:    29601920     .`)    DCD    694163744
        0x00003774:    10802120     !..    DCD    276832544
        0x00003778:    18e020c0    . ..    DCD    417341632
        0x0000377c:    8e238e02    ..#.    DCD    2384694786
        0x00003780:    9e469e65    e.F.    DCD    2655428197
        0x00003784:    7d818de2    ...}    DCD    2105642466
        0x00003788:    75417561    auAu    DCD    1967224161
        0x0000378c:    75417d41    A}Au    DCD    1967226177
        0x00003790:    7d627d62    b}b}    DCD    2103606626
        0x00003794:    75227d62    b}"u    DCD    1965194594
        0x00003798:    63416c83    .lAc    DCD    1665232003
        0x0000379c:    52e44a20     J.R    DCD    1390692896
        0x000037a0:    7cc352e2    .R.|    DCD    2093175522
        0x000037a4:    31c03a80    .:.1    DCD    834681472
        0x000037a8:    286030c0    .0`(    DCD    677392576
        0x000037ac:    79625ac2    .Zby    DCD    2036488898
        0x000037b0:    316048c1    .H`1    DCD    828393665
        0x000037b4:    42813a01    .:.B    DCD    1115765249
        0x000037b8:    4c204b81    .K L    DCD    1277184897
        0x000037bc:    ab1a53a2    .S..    DCD    2870629282
        0x000037c0:    cb7dbb5c    \.}.    DCD    3414014812
        0x000037c4:    d37ddbdf    ..}.    DCD    3548240863
        0x000037c8:    c35dcb5c    \.].    DCD    3277704028
        0x000037cc:    9333bafb    ..3.    DCD    2469640955
        0x000037d0:    63647c26    &|dc    DCD    1667529766
        0x000037d4:    4a424242    BBBJ    DCD    1245856322
        0x000037d8:    6c224ac1    .J"l    DCD    1814186689
        0x000037dc:    64037ca4    .|.d    DCD    1677950116
        0x000037e0:    51c23980    .9.Q    DCD    1371683200
        0x000037e4:    21a02980    .).!    DCD    564144512
        0x000037e8:    21202140    @! !    DCD    555753792
        0x000037ec:    10a018c0    ....    DCD    278927552
        0x000037f0:    292020e0    .  )    DCD    689971424
        0x000037f4:    9602a6a7    ....    DCD    2516756135
        0x000037f8:    7dc08581    ...}    DCD    2109769089
        0x000037fc:    7d817580    .u.}    DCD    2105636224
        0x00003800:    7d827541    Au.}    DCD    2105701697
        0x00003804:    7d827561    au.}    DCD    2105701729
        0x00003808:    7d817d82    .}.}    DCD    2105638274
        0x0000380c:    5cc27543    Cu.\    DCD    1556247875
        0x00003810:    51e063e1    .c.Q    DCD    1373660129
        0x00003814:    4a8349a0    .I.J    DCD    1250118048
        0x00003818:    22c02201    ."."    DCD    583016961
        0x0000381c:    34001b20     ..4    DCD    872422176
        0x00003820:    39003c60    `<.9    DCD    956316768
        0x00003824:    8a247201    .r$.    DCD    2317644289
        0x00003828:    9be59ae8    ....    DCD    2615515880
        0x0000382c:    49414942    BIAI    DCD    1229015362
        0x00003830:    59854923    #I.Y    DCD    1501907235
        0x00003834:    62285200    .R(b    DCD    1646809600
        0x00003838:    71ef92b6    ...q    DCD    1911526070
        0x0000383c:    dbbeb2f8    ....    DCD    3686707960
        0x00003840:    bb1cc33c    <...    DCD    3139224380
        0x00003844:    7be7bafc    ...{    DCD    2078784252
        0x00003848:    6b847c27    '|.k    DCD    1803844647
        0x0000384c:    4a624241    ABbJ    DCD    1247953473
        0x00003850:    6c626383    .cbl    DCD    1818387331
        0x00003854:    7cc57ca4    .|.|    DCD    2093317284
        0x00003858:    51c24200    .B.Q    DCD    1371685376
        0x0000385c:    3a2141e1    .A!:    DCD    975258081
        0x00003860:    29403a21    !:@)    DCD    692075041
        0x00003864:    10a018e0    ....    DCD    278927584
        0x00003868:    39613140    @1a9    DCD    962670912
        0x0000386c:    7da085c0    ...}    DCD    2107672000
        0x00003870:    85c17da0    .}..    DCD    2244050336
        0x00003874:    75817dc1    .}.u    DCD    1971420609
        0x00003878:    75617561    auau    DCD    1969321313
        0x0000387c:    7d827da2    .}.}    DCD    2105703842
        0x00003880:    75627da2    .}bu    DCD    1969388962
        0x00003884:    6c626d22    "mbl    DCD    1818389794
        0x00003888:    51c049c0    .I.Q    DCD    1371556288
        0x0000388c:    424241a0    .ABB    DCD    1111638432
        0x00003890:    33c01a60    `..3    DCD    868227680
        0x00003894:    3ca03c40    @<.<    DCD    1017134144
        0x00003898:    446044c0    .D`D    DCD    1147159744
        0x0000389c:    924548e0    .HE.    DCD    2454014176
        0x000038a0:    ad26ab67    g.&.    DCD    2904992615
        0x000038a4:    7a437ac3    .zCz    DCD    2051242691
        0x000038a8:    516361a4    .acQ    DCD    1365467556
        0x000038ac:    51624982    .IbQ    DCD    1365395842
        0x000038b0:    62645280    .Rdb    DCD    1650741888
        0x000038b4:    d3be9a35    5...    DCD    3552483893
        0x000038b8:    badbc37d    }...    DCD    3134964605
        0x000038bc:    740492d3    ...t    DCD    1946456787
        0x000038c0:    73857c47    G|.s    DCD    1938127943
        0x000038c4:    52a24a62    bJ.R    DCD    1386367586
        0x000038c8:    64405b82    .[@d    DCD    1681939330
        0x000038cc:    7d0474a3    .t.}    DCD    2097444003
        0x000038d0:    49a14280    .B.I    DCD    1235305088
        0x000038d4:    4a624a21    !JbJ    DCD    1247955489
        0x000038d8:    31a04a62    bJ.1    DCD    832588386
        0x000038dc:    18e018e0    ....    DCD    417339616
        0x000038e0:    39813140    @1.9    DCD    964768064
        0x000038e4:    7da07da0    .}.}    DCD    2107669920
        0x000038e8:    7da17580    .u.}    DCD    2107733376
        0x000038ec:    7da185e2    ...}    DCD    2107737570
        0x000038f0:    7da37582    .u.}    DCD    2107864450
        0x000038f4:    8de37da3    .}..    DCD    2380496291
        0x000038f8:    65417d82    .}Ae    DCD    1698790786
        0x000038fc:    4b807503    .u.K    DCD    1266709763
        0x00003900:    49c04b40    @K.I    DCD    1237338944
        0x00003904:    3ac14ae0    .J.:    DCD    985746144
        0x00003908:    4cc32b21    !+.L    DCD    1287858977
        0x0000390c:    44c04cc1    .L.D    DCD    1153453249
        0x00003910:    4ce044e0    .D.L    DCD    1289766112
        0x00003914:    92443920     9D.    DCD    2453944608
        0x00003918:    9c84abe5    ....    DCD    2625940453
        0x0000391c:    93637ae1    .zc.    DCD    2472770273
        0x00003920:    51c28343    C..Q    DCD    1371702083
        0x00003924:    8a8b5146    FQ..    DCD    2324386118
        0x00003928:    5ae052c0    .R.Z    DCD    1524650688
        0x0000392c:    c3bdac6f    o...    DCD    3283987567
        0x00003930:    ab17c35d    ]...    DCD    2870461277
        0x00003934:    6be36b84    .k.k    DCD    1810066308
        0x00003938:    73657446    Ftes    DCD    1936028742
        0x0000393c:    5b4252c2    .RB[    DCD    1531073218
        0x00003940:    54005380    .S.T    DCD    1409307520
        0x00003944:    6ce26462    bd.l    DCD    1826776162
        0x00003948:    41804ac0    .J.A    DCD    1098926784
        0x0000394c:    4a614221    !BaJ    DCD    1247887905
        0x00003950:    42015283    .R.B    DCD    1107382915
        0x00003954:    19202100    .! .    DCD    421536000
        0x00003958:    39402900    .)@9    DCD    960506112
        0x0000395c:    75807da0    .}.u    DCD    1971355040
        0x00003960:    7dc27da1    .}.}    DCD    2109898145
        0x00003964:    7dc385c2    ...}    DCD    2109965762
        0x00003968:    85e485c3    ....    DCD    2246346179
        0x0000396c:    7da38dc4    ...}    DCD    2107870660
        0x00003970:    6d636541    Aecm    DCD    1835230529
        0x00003974:    53e14321    !C.S    DCD    1407271713
        0x00003978:    42205c81    .\ B    DCD    1109417089
        0x0000397c:    4be15c62    b\.K    DCD    1273060450
        0x00003980:    5d254c64    dL%]    DCD    1562725476
        0x00003984:    4d005502    .U.M    DCD    1291867394
        0x00003988:    44c04d00    .M.D    DCD    1153453312
        0x0000398c:    722120e0    . !r    DCD    1914773728
        0x00003990:    8c229c23    #.".    DCD    2351078435
        0x00003994:    a2a47260    `r..    DCD    2728686176
        0x00003998:    9cc59426    &...    DCD    2630194214
        0x0000399c:    9b8bace7    ....    DCD    2609622247
        0x000039a0:    5b204ac0    .J [    DCD    1528842944
        0x000039a4:    b454cec7    ..T.    DCD    3025456839
        0x000039a8:    a5e5bbf7    ....    DCD    2783296503
        0x000039ac:    63a26b81    .k.c    DCD    1671588737
        0x000039b0:    73a66be5    .k.s    DCD    1940286437
        0x000039b4:    6c226b84    .k"l    DCD    1814195076
        0x000039b8:    4c605c00    .\`L    DCD    1281383424
        0x000039bc:    64e254a1    .T.d    DCD    1692554401
        0x000039c0:    39e04b40    @K.9    DCD    971000640
        0x000039c4:    41e031c0    .1.A    DCD    1105211840
        0x000039c8:    42215262    bR!B    DCD    1109480034
        0x000039cc:    21202120     ! !    DCD    555753760
        0x000039d0:    29002920     ).)    DCD    687876384
        0x000039d4:    7dc285a2    ...}    DCD    2109900194
        0x000039d8:    85e27dc2    .}..    DCD    2246213058
        0x000039dc:    85e385c2    ....    DCD    2246280642
        0x000039e0:    85e585e5    ....    DCD    2246411749
        0x000039e4:    6d217561    au!m    DCD    1830909281
        0x000039e8:    64a46d62    bm.d    DCD    1688497506
        0x000039ec:    53e13b62    b;.S    DCD    1407269730
        0x000039f0:    42805ca2    .\.B    DCD    1115708578
        0x000039f4:    5cc35ca1    .\.\    DCD    1556307105
        0x000039f8:    65656d47    Gmee    DCD    1701145927
        0x000039fc:    4d205521    !U M    DCD    1293964577
        0x00003a00:    3c804ce0    .L.<    DCD    1015041248
        0x00003a04:    39a01040    @..9    DCD    966791232
        0x00003a08:    83806b00    .k..    DCD    2206231296
        0x00003a0c:    9aa46200    .b..    DCD    2594464256
        0x00003a10:    ad269ba3    ..&.    DCD    2904988579
        0x00003a14:    5aa094c4    ...Z    DCD    1520473284
        0x00003a18:    74224a80    .J"t    DCD    1948404352
        0x00003a1c:    c6c6cf08    ....    DCD    3334917896
        0x00003a20:    bea5bea5    ....    DCD    3198533285
        0x00003a24:    53617442    BtaS    DCD    1398895682
        0x00003a28:    6ba65bc4    .[.k    DCD    1806064580
        0x00003a2c:    7ce363c3    .c.|    DCD    2095276995
        0x00003a30:    54e064c2    .d.T    DCD    1423992002
        0x00003a34:    550254e1    .T.U    DCD    1426216161
        0x00003a38:    4b215441    AT!K    DCD    1260475457
        0x00003a3c:    394029c0    .)@9    DCD    960506304
        0x00003a40:    39c041c0    .A.9    DCD    968901056
        0x00003a44:    31a12920     ).1    DCD    832645408
        0x00003a48:    28e02920     ).(    DCD    685779232
        0x00003a4c:    7de27dc2    .}.}    DCD    2111995330
        0x00003a50:    86047de3    .}..    DCD    2248441315
        0x00003a54:    8e048e24    $...    DCD    2382663204
        0x00003a58:    6d407d82    .}@m    DCD    1832942978
        0x00003a5c:    75626d61    ambu    DCD    1969384801
        0x00003a60:    4c2474c4    .t$L    DCD    1277457604
        0x00003a64:    5c845445    ET.\    DCD    1552176197
        0x00003a68:    3a804c21    !L.:    DCD    981486625
        0x00003a6c:    65254400    .D%e    DCD    1696941056
        0x00003a70:    55446d67    gmDU    DCD    1430547815
        0x00003a74:    4ce04d00    .M.L    DCD    1289768192
        0x00003a78:    33a044e0    .D.3    DCD    866141408
        0x00003a7c:    29c01060    `..)    DCD    700452960
        0x00003a80:    73004a00    .J.s    DCD    1929398784
        0x00003a84:    82825a00    .Z..    DCD    2189580800
        0x00003a88:    94a49bc3    ....    DCD    2493815747
        0x00003a8c:    4a8073a0    .s.J    DCD    1249932192
        0x00003a90:    b6255b00    .[%.    DCD    3055901440
        0x00003a94:    c6e6cf08    ....    DCD    3337015048
        0x00003a98:    b683c6c5    ....    DCD    3062089413
        0x00003a9c:    3bc0a603    ...;    DCD    1002481155
        0x00003aa0:    63c553c2    .S.c    DCD    1673876418
        0x00003aa4:    6d226422    "d"m    DCD    1830970402
        0x00003aa8:    55216522    "e!U    DCD    1428251938
        0x00003aac:    55025521    !U.U    DCD    1426216225
        0x00003ab0:    548254e2    .T.T    DCD    1417827554
        0x00003ab4:    29003300    .3.)    DCD    687878912
        0x00003ab8:    31803140    @1.1    DCD    830484800
        0x00003abc:    420339a1    .9.B    DCD    1107507617
        0x00003ac0:    20c03140    @1.     DCD    549466432
        0x00003ac4:    8e258e24    $.%.    DCD    2384825892
        0x00003ac8:    85e38e25    %...    DCD    2246282789
        0x00003acc:    6d607da0    .}`m    DCD    1835040160
        0x00003ad0:    6d826d41    Am.m    DCD    1837264193
        0x00003ad4:    7d057543    Cu.}    DCD    2097509699
        0x00003ad8:    2ae14c01    .L.*    DCD    719408129
        0x00003adc:    5cc54c25    %L.\    DCD    1556433957
        0x00003ae0:    22403b80    .;@"    DCD    574634880
        0x00003ae4:    5ce42300    .#.\    DCD    1558455040
        0x00003ae8:    4ce35d25    %].L    DCD    1289968933
        0x00003aec:    44c04ce1    .L.D    DCD    1153453281
        0x00003af0:    32e044c0    .D.2    DCD    853558464
        0x00003af4:    29601040    @.`)    DCD    694161472
        0x00003af8:    62a03180    .1.b    DCD    1654665600
        0x00003afc:    5a405a80    .Z@Z    DCD    1514166912
        0x00003b00:    63417300    .sAc    DCD    1665233664
        0x00003b04:    4a8053a0    .S.J    DCD    1249924000
        0x00003b08:    cee88484    ....    DCD    3471344772
        0x00003b0c:    cee7c6a6    ....    DCD    3471296166
        0x00003b10:    b683c6e5    ....    DCD    3062089445
        0x00003b14:    5460ae63    c.`T    DCD    1415622243
        0x00003b18:    54024be0    .K.T    DCD    1409436640
        0x00003b1c:    5d2154a1    .T!]    DCD    1562465441
        0x00003b20:    55205d41    A] U    DCD    1428184385
        0x00003b24:    55225521    !U"U    DCD    1428313377
        0x00003b28:    5d235d23    #]#]    DCD    1562598691
        0x00003b2c:    2a004c41    AL.*    DCD    704662593
        0x00003b30:    39e03180    .1.9    DCD    970994048
        0x00003b34:    4a644242    BBdJ    DCD    1248084546
        0x00003b38:    214039e1    .9@!    DCD    557857249
        0x00003b3c:    65206580    .e e    DCD    1696621952
        0x00003b40:    65606d60    `m`e    DCD    1700818272
        0x00003b44:    6d616560    `eam    DCD    1835099488
        0x00003b48:    85056d62    bm..    DCD    2231725410
        0x00003b4c:    6ca36463    cd.l    DCD    1822647395
        0x00003b50:    098043a1    .C..    DCD    159400865
        0x00003b54:    442222c0    .""D    DCD    1143087808
        0x00003b58:    12003260    `2..    DCD    302002784
        0x00003b5c:    3c211220     .!<    DCD    1008800288
        0x00003b60:    4ca354c4    .T.L    DCD    1285772484
        0x00003b64:    44604481    .D`D    DCD    1147159681
        0x00003b68:    31e04c20     L.1    DCD    836783136
        0x00003b6c:    29802880    .(.)    DCD    696264832
        0x00003b70:    6c4129c0    .)Al    DCD    1816209856
        0x00003b74:    75446ca2    .lDu    DCD    1967418530
        0x00003b78:    654264e2    .dBe    DCD    1698850018
        0x00003b7c:    84836564    de..    DCD    2223203684
        0x00003b80:    d74acee7    ..J.    DCD    3612004071
        0x00003b84:    be84c6e6    ....    DCD    3196372710
        0x00003b88:    b6a3c6e6    ....    DCD    3064186598
        0x00003b8c:    8d82a622    "...    DCD    2374149666
        0x00003b90:    44403c20     <@D    DCD    1145060384
        0x00003b94:    550054e0    .T.U    DCD    1426085088
        0x00003b98:    55215520     U!U    DCD    1428247840
        0x00003b9c:    55225521    !U"U    DCD    1428313377
        0x00003ba0:    5d435d43    C]C]    DCD    1564695875
        0x00003ba4:    43c15502    .U.C    DCD    1136743682
        0x00003ba8:    5b845363    cS.[    DCD    1535398755
        0x00003bac:    6c2663a5    .c&l    DCD    1814455205
        0x00003bb0:    5bc45be4    .[.[    DCD    1539595236
        0x00003bb4:    6d626d82    .mbm    DCD    1835167106
        0x00003bb8:    65416d61    amAe    DCD    1698786657
        0x00003bbc:    64c36d42    Bm.d    DCD    1690529090
        0x00003bc0:    22404362    bC@"    DCD    574636898
        0x00003bc4:    6d045401    .T.m    DCD    1829000193
        0x00003bc8:    29c04bc2    .K.)    DCD    700468162
        0x00003bcc:    2a2029c0    .) *    DCD    706750912
        0x00003bd0:    01a02260    `"..    DCD    27271776
        0x00003bd4:    1a8001a0    ....    DCD    444596640
        0x00003bd8:    2b202b21    !+ +    DCD    723528481
        0x00003bdc:    4b202b00    .+ K    DCD    1260399360
        0x00003be0:    290052e1    .R.)    DCD    687887073
        0x00003be4:    394048e1    .H@9    DCD    960514273
        0x00003be8:    7d044241    AB.}    DCD    2097431105
        0x00003bec:    7da47de4    .}.}    DCD    2107932132
        0x00003bf0:    6d426542    BeBm    DCD    1833067842
        0x00003bf4:    6ce36d64    dm.l    DCD    1826844004
        0x00003bf8:    d729cf09    ..).    DCD    3609841417
        0x00003bfc:    bea5d729    )...    DCD    3198539561
        0x00003c00:    b6a3b664    d...    DCD    3064182372
        0x00003c04:    9de2a642    B...    DCD    2648876610
        0x00003c08:    3c603c60    `<`<    DCD    1012939872
        0x00003c0c:    4ce04cc0    .L.L    DCD    1289768128
        0x00003c10:    4ce04ce0    .L.L    DCD    1289768160
        0x00003c14:    4ce14ce0    .L.L    DCD    1289833696
        0x00003c18:    5d225521    !U"]    DCD    1562531105
        0x00003c1c:    54c35d22    "].T    DCD    1422089506
        0x00003c20:    74a76c87    .l.t    DCD    1957129351
        0x00003c24:    7d2974e8    .t)}    DCD    2099868904
        0x00003c28:    7d487d69    i}H}    DCD    2101902697
        0x00003c2c:    64c15cc2    .\.d    DCD    1690393794
        0x00003c30:    4bc15c82    .\.K    DCD    1270963330
        0x00003c34:    09402a60    `*@.    DCD    155200096
        0x00003c38:    09a00960    `...    DCD    161483104
        0x00003c3c:    74e43b60    `;.t    DCD    1961114464
        0x00003c40:    52835c23    #\.R    DCD    1384340515
        0x00003c44:    116039c1    .9`.    DCD    291518913
        0x00003c48:    018009e0    ....    DCD    25168352
        0x00003c4c:    01800180    ....    DCD    25166208
        0x00003c50:    09a001a0    ....    DCD    161481120
        0x00003c54:    524121a0    .!AR    DCD    1380000160
        0x00003c58:    30c05a61    aZ.0    DCD    817912417
        0x00003c5c:    69824941    AI.i    DCD    1770146113
        0x00003c60:    7ca55262    bR.|    DCD    2091209314
        0x00003c64:    7dc48de5    ...}    DCD    2110033381
        0x00003c68:    65427583    .uBe    DCD    1698854275
        0x00003c6c:    2b404ca1    .L@+    DCD    725634209
        0x00003c70:    cf08a5e4    ....    DCD    3473450468
        0x00003c74:    c6e8d729    )...    DCD    3337148201
        0x00003c78:    ae64b664    d.d.    DCD    2925835876
        0x00003c7c:    9de2ae62    b...    DCD    2648878690
        0x00003c80:    3c604ca0    .L`<    DCD    1012944032
        0x00003c84:    4ca054a0    .T.L    DCD    1285575840
        0x00003c88:    4ca04480    .D.L    DCD    1285571712
        0x00003c8c:    4cc14ca1    .L.L    DCD    1287736481
        0x00003c90:    55025502    .U.U    DCD    1426216194
        0x00003c94:    54e254c1    .T.T    DCD    1424118977
        0x00003c98:    74886ca7    .l.t    DCD    1955097767
        0x00003c9c:    7d6974e8    .ti}    DCD    2104063208
        0x00003ca0:    85898589    ....    DCD    2240382345
        0x00003ca4:    01200140    @. .    DCD    18874688
        0x00003ca8:    01200100    .. .    DCD    18874624
        0x00003cac:    01000100    ....    DCD    16777472
        0x00003cb0:    09800960    `...    DCD    159385952
        0x00003cb4:    5c2211e0    .."\    DCD    1545736672
        0x00003cb8:    6ae46c25    %l.j    DCD    1793354789
        0x00003cbc:    19a041e1    .A..    DCD    429933025
        0x00003cc0:    018009a0    ....    DCD    25168288
        0x00003cc4:    01a001a0    ....    DCD    27263392
        0x00003cc8:    19600160    `.`.    DCD    425722208
        0x00003ccc:    5a4239c0    .9BZ    DCD    1514289600
        0x00003cd0:    49216a61    aj!I    DCD    1226926689
        0x00003cd4:    ac457263    crE.    DCD    2890232419
        0x00003cd8:    7be66283    .b.{    DCD    2078696067
        0x00003cdc:    7da49587    ...}    DCD    2107938183
        0x00003ce0:    654275a3    .uBe    DCD    1698854307
        0x00003ce4:    12402b60    `+@.    DCD    306195296
        0x00003ce8:    cee84460    `D..    DCD    3471328352
        0x00003cec:    cf29c6e5    ..).    DCD    3475621605
        0x00003cf0:    a603c6e6    ....    DCD    2785265382
        0x00003cf4:    9d63ae83    ..c.    DCD    2640555651
        0x00003cf8:    44a06ca1    .l.D    DCD    1151364257
        0x00003cfc:    7c856ca2    .l.|    DCD    2089118882
        0x00003d00:    54a353e1    .S.T    DCD    1419989985
        0x00003d04:    6d456525    %eEm    DCD    1833264421
        0x00003d08:    65457566    fuEe    DCD    1699050854
        0x00003d0c:    4c415482    .TAL    DCD    1279349890
        0x00003d10:    63c663e5    .c.c    DCD    1673946085
        0x00003d14:    6ca76446    Fd.l    DCD    1822909510
        0x00003d18:    6ca76cc8    .l.l    DCD    1822911688
        0x00003d1c:    01000100    ....    DCD    16777472
        0x00003d20:    01200100    .. .    DCD    18874624
        0x00003d24:    012000e0    .. .    DCD    18874592
        0x00003d28:    01802ae1    .*..    DCD    25176801
        0x00003d2c:    2aa00980    ...*    DCD    715131264
        0x00003d30:    72e46384    .c.r    DCD    1927570308
        0x00003d34:    324041c0    .A@2    DCD    843071936
        0x00003d38:    12201a80    .. .    DCD    304093824
        0x00003d3c:    12001a60    `...    DCD    301996640
        0x00003d40:    31c01180    ...1    DCD    834670976
        0x00003d44:    5a635aa2    .ZcZ    DCD    1516460706
        0x00003d48:    61c15a00    .Z.a    DCD    1640061440
        0x00003d4c:    a5648c06    ..d.    DCD    2774830086
        0x00003d50:    63249da4    ..$c    DCD    1663344036
        0x00003d54:    6c6484a6    ..dl    DCD    1818526886
        0x00003d58:    4c806d03    .m.L    DCD    1283484931
        0x00003d5c:    1aa01240    @...    DCD    446698048
        0x00003d60:    6d023c60    `<.m    DCD    1828863072
        0x00003d64:    c6e6cee8    ....    DCD    3337015016
        0x00003d68:    ae84c6e7    ....    DCD    2927937255
        0x00003d6c:    8d629dc3    ..b.    DCD    2372050371
        0x00003d70:    5ce18463    c..\    DCD    1558283363
        0x00003d74:    8c867ca4    .|..    DCD    2357623972
        0x00003d78:    6d466c64    dlFm    DCD    1833331812
        0x00003d7c:    7dc875a7    .u.}    DCD    2110289319
        0x00003d80:    7da88dea    ...}    DCD    2108198378
        0x00003d84:    4be174c5    .t.K    DCD    1273066693
        0x00003d88:    63445b23    #[Dc    DCD    1665424163
        0x00003d8c:    5ba35b83    .[.[    DCD    1537432451
        0x00003d90:    42a14b22    "K.B    DCD    1117866786
        0x00003d94:    01000940    @...    DCD    16779584
        0x00003d98:    01000100    ....    DCD    16777472
        0x00003d9c:    22e00120     .."    DCD    585105696
        0x00003da0:    09802b40    @+..    DCD    159394624
        0x00003da4:    09a00980    ....    DCD    161483136
        0x00003da8:    62824261    aB.b    DCD    1652703841
        0x00003dac:    324039a0    .9@2    DCD    843069856
        0x00003db0:    12202260    `" .    DCD    304095840
        0x00003db4:    22001a40    @.."    DCD    570432064
        0x00003db8:    426121a0    .!aB    DCD    1113661856
        0x00003dbc:    6ae46325    %c.j    DCD    1793352485
        0x00003dc0:    61c149a0    .I.a    DCD    1640057248
        0x00003dc4:    a6048d24    $...    DCD    2785316132
        0x00003dc8:    7c62a683    ..b|    DCD    2086839939
        0x00003dcc:    5ae56ba5    .k.Z    DCD    1524984741
        0x00003dd0:    33804b62    bK.3    DCD    864045922
        0x00003dd4:    23401260    `.@#    DCD    591401568
        0x00003dd8:    3c603c80    .<`<    DCD    1012939904
        0x00003ddc:    c6c87543    Cu..    DCD    3335025987
        0x00003de0:    b6a4bec6    ....    DCD    3064250054
        0x00003de4:    8543a603    ..C.    DCD    2235803139
        0x00003de8:    5d016c61    al.]    DCD    1560374369
        0x00003dec:    8d067d04    .}..    DCD    2366012676
        0x00003df0:    7de87566    fu.}    DCD    2112386406
        0x00003df4:    7e077de7    .}.~    DCD    2114420199
        0x00003df8:    85c79609    ....    DCD    2244449801
        0x00003dfc:    6c648d08    ..dl    DCD    1818529032
        0x00003e00:    7bc66ba4    .k.{    DCD    2076601252
        0x00003e04:    6ba57c07    .|.k    DCD    1806007303
        0x00003e08:    3a414a82    .JA:    DCD    977357442
        0x00003e0c:    01202a20     * .    DCD    18885152
        0x00003e10:    01200120     . .    DCD    18874656
        0x00003e14:    34011280    ...4    DCD    872485504
        0x00003e18:    01802b40    @+..    DCD    25176896
        0x00003e1c:    01800180    ....    DCD    25166208
        0x00003e20:    41c019a0    ...A    DCD    1103108512
        0x00003e24:    29a02980    .).)    DCD    698362240
        0x00003e28:    11602160    `!`.    DCD    291512672
        0x00003e2c:    32202a20     * 2    DCD    840968736
        0x00003e30:    4aa13220     2.J    DCD    1252078112
        0x00003e34:    73035b04    .[.s    DCD    1929599748
        0x00003e38:    52203920     9 R    DCD    1377843488
        0x00003e3c:    ae648d82    ..d.    DCD    2925825410
        0x00003e40:    a644ae84    ..D.    DCD    2789518980
        0x00003e44:    4a446363    ccDJ    DCD    1245995875
        0x00003e48:    2b6029e0    .)`+    DCD    727722464
        0x00003e4c:    33e02b60    `+.3    DCD    870329184
        0x00003e50:    44803c80    .<.D    DCD    1149254784
        0x00003e54:    65013ca0    .<.e    DCD    1694579872
        0x00003e58:    bec5bea8    ....    DCD    3200630440
        0x00003e5c:    95c2ae43    C...    DCD    2512563779
        0x00003e60:    55006ca1    .l.U    DCD    1426091169
        0x00003e64:    75446522    "eDu    DCD    1967416610
        0x00003e68:    75c66da5    .m.u    DCD    1975938469
        0x00003e6c:    75e575c6    .u.u    DCD    1977972166
        0x00003e70:    7da585e6    ...}    DCD    2107999718
        0x00003e74:    7d258d47    G.%}    DCD    2099612999
        0x00003e78:    846784a7    ..g.    DCD    2221376679
        0x00003e7c:    84089469    i...    DCD    2215154793
        0x00003e80:    4bc25b64    d[.K    DCD    1271028580
        0x00003e84:    01204b60    `K .    DCD    18893664
        0x00003e88:    12c00160    `...    DCD    314573152
        0x00003e8c:    44412380    .#AD    DCD    1145119616
        0x00003e90:    01802360    `#..    DCD    25174880
        0x00003e94:    09800180    ....    DCD    159383936
        0x00003e98:    19600980    ..`.    DCD    425724288
        0x00003e9c:    21402140    @!@!    DCD    557850944
        0x00003ea0:    29a02120     !.)    DCD    698360096
        0x00003ea4:    42a05343    CS.B    DCD    1117803331
        0x00003ea8:    4aa042c0    .B.J    DCD    1252016832
        0x00003eac:    72e252c2    .R.r    DCD    1927434946
        0x00003eb0:    534038e0    .8@S    DCD    1396717792
        0x00003eb4:    aea48d82    ....    DCD    2930019714
        0x00003eb8:    a665ae64    d.e.    DCD    2791681636
        0x00003ebc:    4a8395a3    ...J    DCD    1250137507
        0x00003ec0:    33c02220     ".3    DCD    868229664
        0x00003ec4:    3c4033e0    .3@<    DCD    1010840544
        0x00003ec8:    44a044c0    .D.D    DCD    1151354048
        0x00003ecc:    44c044a0    .D.D    DCD    1153451168
        0x00003ed0:    a6055d21    !]..    DCD    2785369377
        0x00003ed4:    9e02b683    ....    DCD    2650977923
        0x00003ed8:    5ce08542    B..\    DCD    1558218050
        0x00003edc:    65845d22    "].e    DCD    1703173410
        0x00003ee0:    75c56da4    .m.u    DCD    1975872932
        0x00003ee4:    75c475c4    .u.u    DCD    1975809476
        0x00003ee8:    85a67dc5    .}..    DCD    2242280901
        0x00003eec:    6d637d64    d}cm    DCD    1835236708
        0x00003ef0:    7ce58525    %..|    DCD    2095416613
        0x00003ef4:    84688ca8    ..h.    DCD    2221444264
        0x00003ef8:    4c625c63    c\bL    DCD    1281514595
        0x00003efc:    11e04be0    .K..    DCD    299912160
        0x00003f00:    23a033a1    .3.#    DCD    597701537
        0x00003f04:    3c222ba0    .+"<    DCD    1008872352
        0x00003f08:    01802b80    .+..    DCD    25176960
        0x00003f0c:    09800180    ....    DCD    159383936
        0x00003f10:    09800980    ....    DCD    159385984
        0x00003f14:    21402980    .)@!    DCD    557853056
        0x00003f18:    3a201920     . :    DCD    975182112
        0x00003f1c:    4b0163a4    .c.K    DCD    1258382244
        0x00003f20:    42405301    .S@B    DCD    1111511809
        0x00003f24:    6aa16ae2    .j.j    DCD    1788963554
        0x00003f28:    4c4038e0    .8@L    DCD    1279277280
        0x00003f2c:    b6c68da3    ....    DCD    3066465699
        0x00003f30:    ae65ae63    c.e.    DCD    2925899363
        0x00003f34:    84e3ae84    ....    DCD    2229513860
        0x00003f38:    33a02ae0    .*.3    DCD    866134752
        0x00003f3c:    3c6033c0    .3`<    DCD    1012937664
        0x00003f40:    44a04ce0    .L.D    DCD    1151356128
        0x00003f44:    4ce044c0    .D.L    DCD    1289766080
        0x00003f48:    4ce04d00    .M.L    DCD    1289768192
        0x00003f4c:    a6238da3    ..#.    DCD    2787347875
        0x00003f50:    750295c1    ...u    DCD    1963103681
        0x00003f54:    6da56523    #e.m    DCD    1839555875
        0x00003f58:    75c56dc5    .m.u    DCD    1975872965
        0x00003f5c:    75c575e5    .u.u    DCD    1975875045
        0x00003f60:    85a775c5    .u..    DCD    2242344389
        0x00003f64:    65616d82    .mae    DCD    1700883842
        0x00003f68:    75227543    Cu"u    DCD    1965192515
        0x00003f6c:    64a574e5    .t.d    DCD    1688564965
        0x00003f70:    3c004cc2    .L.<    DCD    1006652610
        0x00003f74:    2b403340    @3@+    DCD    725627712
        0x00003f78:    23803c00    .<.#    DCD    595606528
        0x00003f7c:    3c212b80    .+!<    DCD    1008806784
        0x00003f80:    09a02ba0    .+..    DCD    161491872
        0x00003f84:    09800180    ....    DCD    159383936
        0x00003f88:    09a00980    ....    DCD    161483136
        0x00003f8c:    214029a0    .)@!    DCD    557853088
        0x00003f90:    32001900    ...2    DCD    838867200
        0x00003f94:    5ba24b01    .K.[    DCD    1537362689
        0x00003f98:    4a205b43    C[ J    DCD    1243634499
        0x00003f9c:    49c08323    #..I    DCD    1237353251
        0x00003fa0:    54a04120     A.T    DCD    1419788576
        0x00003fa4:    b6a795c4    ....    DCD    3064436164
        0x00003fa8:    a664a644    D.d.    DCD    2791614020
        0x00003fac:    ae86ae85    ....    DCD    2928062085
        0x00003fb0:    23005c02    .\.#    DCD    587226114
        0x00003fb4:    3c402b20     +@<    DCD    1010838304
        0x00003fb8:    44c04ce0    .L.D    DCD    1153453280
        0x00003fbc:    4d0044c0    .D.M    DCD    1291863232
        0x00003fc0:    44e04d00    .M.D    DCD    1155550464
        0x00003fc4:    7d424ce0    .LB}    DCD    2101497056
        0x00003fc8:    85629e02    ..b.    DCD    2237832706
        0x00003fcc:    75c66524    $e.u    DCD    1975936292
        0x00003fd0:    75e575c6    .u.u    DCD    1977972166
        0x00003fd4:    6dc475e5    .u.m    DCD    1841591781
        0x00003fd8:    7da56dc4    .m.}    DCD    2107993540
        0x00003fdc:    65816d82    .m.e    DCD    1702980994
        0x00003fe0:    6d436d61    amCm    DCD    1833135457
        0x00003fe4:    4ce15d24    $].L    DCD    1289837860
        0x00003fe8:    33c04480    .D.3    DCD    868238464
        0x00003fec:    1aa01a60    `...    DCD    446700128
        0x00003ff0:    2bc02ba0    .+.+    DCD    734014368
        0x00003ff4:    446223a0    .#bD    DCD    1147282336
        0x00003ff8:    09a02ba0    .+..    DCD    161491872
        0x00003ffc:    09a00180    ....    DCD    161481088
        0x00004000:    09a009a0    ....    DCD    161483168
        0x00004004:    29602200    ."`)    DCD    694166016
        0x00004008:    29a02140    @!.)    DCD    698360128
        0x0000400c:    6c243a80    .:$l    DCD    1814313600
        0x00004010:    6ac26385    .c.j    DCD    1791124357
        0x00004014:    39208303    .. 9    DCD    958432003
        0x00004018:    54c041e0    .A.T    DCD    1421885920
        0x0000401c:    aea69de4    ....    DCD    2930154980
        0x00004020:    a665ae44    D.e.    DCD    2791681604
        0x00004024:    ae85b6a7    ....    DCD    2927998631
        0x00004028:    1200ae46    F...    DCD    302034502
        0x0000402c:    33e01200    ...3    DCD    870322688
        0x00004030:    44c04ce0    .L.D    DCD    1153453280
        0x00004034:    4d0044e0    .D.M    DCD    1291863264
        0x00004038:    44e04d00    .M.D    DCD    1155550464
        0x0000403c:    4ce04ce0    .L.L    DCD    1289768160
        0x00004040:    95a27d42    B}..    DCD    2510454082
        0x00004044:    6d845d02    .].m    DCD    1837391106
        0x00004048:    6da46d84    .m.m    DCD    1839492484
        0x0000404c:    6da46dc4    .m.m    DCD    1839492548
        0x00004050:    6dc46dc4    .m.m    DCD    1841589700
        0x00004054:    65a26da3    .m.e    DCD    1705143715
        0x00004058:    75a66d82    .m.u    DCD    1973841282
        0x0000405c:    55016564    de.U    DCD    1426154852
        0x00004060:    43e03c40    @<.C    DCD    1138768960
        0x00004064:    12201200    .. .    DCD    304091648
        0x00004068:    23802360    `#.#    DCD    595600224
        0x0000406c:    44412380    .#AD    DCD    1145119616
        0x00004070:    11c02bc0    .+..    DCD    297806784
        0x00004074:    09a00980    ....    DCD    161483136
        0x00004078:    1a6009c0    ..`.    DCD    442501568
        0x0000407c:    31e03b60    `;.1    DCD    836778848
        0x00004080:    39a03140    @1.9    DCD    966799680
        0x00004084:    6c243260    `2$l    DCD    1814311520
        0x00004088:    83445b64    d[D.    DCD    2202295140
        0x0000408c:    30e05241    AR.0    DCD    820007489
        0x00004090:    54c04340    @C.T    DCD    1421886272
        0x00004094:    aea79e24    $...    DCD    2930220580
        0x00004098:    a665b6a7    ..e.    DCD    2791683751
        0x0000409c:    ae85b6a8    ....    DCD    2927998632
        0x000040a0:    84e4b687    ....    DCD    2229581447
        0x000040a4:    2b800160    `..+    DCD    729809248
        0x000040a8:    4ce044e0    .D.L    DCD    1289766112
        0x000040ac:    4d0044c0    .D.M    DCD    1291863232
        0x000040b0:    4ce04d00    .M.L    DCD    1289768192
        0x000040b4:    44e04ce0    .L.D    DCD    1155550432
        0x000040b8:    85415500    .UA.    DCD    2235651328
        0x000040bc:    65637522    "uce    DCD    1701016866
        0x000040c0:    65626563    cebe    DCD    1700947299
        0x000040c4:    65626562    bebe    DCD    1700947298
        0x000040c8:    65836583    .e.e    DCD    1703110019
        0x000040cc:    65826582    .e.e    DCD    1703044482
        0x000040d0:    7de76dc5    .m.}    DCD    2112318917
        0x000040d4:    55005d62    b].U    DCD    1426087266
        0x000040d8:    54422bc0    .+BT    DCD    1413622720
    .L.str.8
        0x000040dc:    2578305b    [0x%    DCD    628633691
        0x000040e0:    5d783830    08x]    DCD    1568159792
        0x000040e4:    25783020     0x%    DCD    628633632
        0x000040e8:    20783430    04x     DCD    544748592
        0x000040ec:    30207325    %s 0    DCD    807432997
        0x000040f0:    20782578    x%x     DCD    544744824
        0x000040f4:    2578305b    [0x%    DCD    628633691
        0x000040f8:    000a5d78    x]..    DCD    679288
    .L.str.11
        0x000040fc:    2f52444c    LDR/    DCD    793920588
        0x00004100:    20525453    STR     DCD    542266451
        0x00004104:    253d7472    rt=%    DCD    624784498
        0x00004108:    6e722078    x rn    DCD    1852973176
        0x0000410c:    2078253d    =%x     DCD    544744765
        0x00004110:    356d6d69    imm5    DCD    896363881
        0x00004114:    0a78253d    =%x.    DCD    175646013
        0x00004118:    00          .       DCB    0
    .L.str.7
        0x00004119:    4c4452      LDR     DCB    76,68,82
        0x0000411c:    5254532f    /STR    DCD    1381258031
        0x00004120:    3d747220     rt=    DCD    1031041568
        0x00004124:    72207825    %x r    DCD    1914730533
        0x00004128:    78253d6d    m=%x    DCD    2015706477
        0x0000412c:    3d6e7220     rn=    DCD    1030648352
        0x00004130:    000a7825    %x..    DCD    686117
    .L.str.9
        0x00004134:    0052444c    LDR.    DCD    5391436
    .L.str.10
        0x00004138:    00525453    STR.    DCD    5395539
    .Lstr.16
        0x0000413c:    63657845    Exec    DCD    1667594309
        0x00004140:    20657475    ute     DCD    543519861
        0x00004144:    54504b42    BKPT    DCD    1414548290
        0x00004148:    74697720     wit    DCD    1953068832
        0x0000414c:    74756f68    hout    DCD    1953853288
        0x00004150:    45434920     ICE    DCD    1162037536
        0x00004154:    6e6f6320     con    DCD    1852793632
        0x00004158:    7463656e    nect    DCD    1952671086
        0x0000415c:    00006465    ed..    DCD    25701
    Region$$Table$$Base
        0x00004160:    00004180    .A..    DCD    16768
        0x00004164:    20000000    ...     DCD    536870912
        0x00004168:    0000002c    ,...    DCD    44
        0x0000416c:    000016b0    ....    DCD    5808
        0x00004170:    000041ac    .A..    DCD    16812
        0x00004174:    20000030    0..     DCD    536870960
        0x00004178:    00000860    `...    DCD    2144
        0x0000417c:    000016c0    ....    DCD    5824
    Region$$Table$$Limit

** Section #2 'ER_RW' (SHT_PROGBITS) [SHF_ALLOC + SHF_WRITE]
    Size   : 44 bytes (alignment 4)
    Address: 0x20000000


** Section #3 'ER_ZI' (SHT_NOBITS) [SHF_ALLOC + SHF_WRITE]
    Size   : 2144 bytes (alignment 8)
    Address: 0x20000030


** Section #4 '.debug_abbrev' (SHT_PROGBITS)
    Size   : 3144 bytes


** Section #5 '.debug_frame' (SHT_PROGBITS)
    Size   : 2524 bytes


** Section #6 '.debug_info' (SHT_PROGBITS)
    Size   : 21360 bytes


** Section #7 '.debug_line' (SHT_PROGBITS)
    Size   : 11040 bytes


** Section #8 '.debug_loc' (SHT_PROGBITS)
    Size   : 11890 bytes


** Section #9 '.debug_ranges' (SHT_PROGBITS)
    Size   : 2104 bytes


** Section #10 '.debug_str' (SHT_PROGBITS)
    Size   : 9350 bytes


** Section #11 '.symtab' (SHT_SYMTAB)
    Size   : 5168 bytes (alignment 4)
    String table #12 '.strtab'
    Last local symbol no. 121


** Section #12 '.strtab' (SHT_STRTAB)
    Size   : 4544 bytes


** Section #13 '.note' (SHT_NOTE)
    Size   : 28 bytes (alignment 4)


** Section #14 '.comment' (SHT_PROGBITS)
    Size   : 1564 bytes


** Section #15 '.shstrtab' (SHT_STRTAB)
    Size   : 148 bytes


